
bin.game:     file format elf32-i386


Disassembly of section .text:

080480a0 <putch>:
 80480a0:	55                   	push   %ebp
 80480a1:	89 e5                	mov    %esp,%ebp
 80480a3:	83 ec 18             	sub    $0x18,%esp
 80480a6:	8b 45 08             	mov    0x8(%ebp),%eax
 80480a9:	0f be c0             	movsbl %al,%eax
 80480ac:	89 04 24             	mov    %eax,(%esp)
 80480af:	e8 43 1b 00 00       	call   8049bf7 <serial_printc>
 80480b4:	8b 45 0c             	mov    0xc(%ebp),%eax
 80480b7:	8b 00                	mov    (%eax),%eax
 80480b9:	8d 50 01             	lea    0x1(%eax),%edx
 80480bc:	8b 45 0c             	mov    0xc(%ebp),%eax
 80480bf:	89 10                	mov    %edx,(%eax)
 80480c1:	c9                   	leave  
 80480c2:	c3                   	ret    

080480c3 <vprintk>:
 80480c3:	55                   	push   %ebp
 80480c4:	89 e5                	mov    %esp,%ebp
 80480c6:	83 ec 28             	sub    $0x28,%esp
 80480c9:	c7 45 f4 00 00 00 00 	movl   $0x0,-0xc(%ebp)
 80480d0:	8b 45 0c             	mov    0xc(%ebp),%eax
 80480d3:	89 44 24 0c          	mov    %eax,0xc(%esp)
 80480d7:	8b 45 08             	mov    0x8(%ebp),%eax
 80480da:	89 44 24 08          	mov    %eax,0x8(%esp)
 80480de:	8d 45 f4             	lea    -0xc(%ebp),%eax
 80480e1:	89 44 24 04          	mov    %eax,0x4(%esp)
 80480e5:	c7 04 24 a0 80 04 08 	movl   $0x80480a0,(%esp)
 80480ec:	e8 37 15 00 00       	call   8049628 <vprintfmt>
 80480f1:	8b 45 f4             	mov    -0xc(%ebp),%eax
 80480f4:	c9                   	leave  
 80480f5:	c3                   	ret    

080480f6 <printk>:
 80480f6:	55                   	push   %ebp
 80480f7:	89 e5                	mov    %esp,%ebp
 80480f9:	83 ec 28             	sub    $0x28,%esp
 80480fc:	8d 45 0c             	lea    0xc(%ebp),%eax
 80480ff:	89 45 f0             	mov    %eax,-0x10(%ebp)
 8048102:	8b 45 f0             	mov    -0x10(%ebp),%eax
 8048105:	89 44 24 04          	mov    %eax,0x4(%esp)
 8048109:	8b 45 08             	mov    0x8(%ebp),%eax
 804810c:	89 04 24             	mov    %eax,(%esp)
 804810f:	e8 af ff ff ff       	call   80480c3 <vprintk>
 8048114:	89 45 f4             	mov    %eax,-0xc(%ebp)
 8048117:	8b 45 f4             	mov    -0xc(%ebp),%eax
 804811a:	c9                   	leave  
 804811b:	c3                   	ret    

0804811c <_kaddr>:
 804811c:	55                   	push   %ebp
 804811d:	89 e5                	mov    %esp,%ebp
 804811f:	83 ec 18             	sub    $0x18,%esp
 8048122:	8b 45 10             	mov    0x10(%ebp),%eax
 8048125:	c1 e8 0c             	shr    $0xc,%eax
 8048128:	3d ff 7f 00 00       	cmp    $0x7fff,%eax
 804812d:	76 13                	jbe    8048142 <_kaddr+0x26>
 804812f:	8b 45 10             	mov    0x10(%ebp),%eax
 8048132:	89 44 24 04          	mov    %eax,0x4(%esp)
 8048136:	c7 04 24 00 a5 04 08 	movl   $0x804a500,(%esp)
 804813d:	e8 b4 ff ff ff       	call   80480f6 <printk>
 8048142:	8b 45 10             	mov    0x10(%ebp),%eax
 8048145:	2d 00 00 00 40       	sub    $0x40000000,%eax
 804814a:	c9                   	leave  
 804814b:	c3                   	ret    

0804814c <page2pa>:
 804814c:	55                   	push   %ebp
 804814d:	89 e5                	mov    %esp,%ebp
 804814f:	8b 55 08             	mov    0x8(%ebp),%edx
 8048152:	b8 40 88 05 08       	mov    $0x8058840,%eax
 8048157:	29 c2                	sub    %eax,%edx
 8048159:	89 d0                	mov    %edx,%eax
 804815b:	c1 f8 03             	sar    $0x3,%eax
 804815e:	c1 e0 0c             	shl    $0xc,%eax
 8048161:	5d                   	pop    %ebp
 8048162:	c3                   	ret    

08048163 <page2kva>:
 8048163:	55                   	push   %ebp
 8048164:	89 e5                	mov    %esp,%ebp
 8048166:	83 ec 18             	sub    $0x18,%esp
 8048169:	8b 45 08             	mov    0x8(%ebp),%eax
 804816c:	89 04 24             	mov    %eax,(%esp)
 804816f:	e8 d8 ff ff ff       	call   804814c <page2pa>
 8048174:	89 44 24 08          	mov    %eax,0x8(%esp)
 8048178:	c7 44 24 04 51 00 00 	movl   $0x51,0x4(%esp)
 804817f:	00 
 8048180:	c7 04 24 22 a5 04 08 	movl   $0x804a522,(%esp)
 8048187:	e8 90 ff ff ff       	call   804811c <_kaddr>
 804818c:	c9                   	leave  
 804818d:	c3                   	ret    

0804818e <kernel_main>:
 804818e:	55                   	push   %ebp
 804818f:	89 e5                	mov    %esp,%ebp
 8048191:	83 ec 18             	sub    $0x18,%esp
 8048194:	c7 04 24 33 a5 04 08 	movl   $0x804a533,(%esp)
 804819b:	e8 56 ff ff ff       	call   80480f6 <printk>
 80481a0:	e8 5b 0a 00 00       	call   8048c00 <page_init>
 80481a5:	c7 04 24 45 a5 04 08 	movl   $0x804a545,(%esp)
 80481ac:	e8 45 ff ff ff       	call   80480f6 <printk>
 80481b1:	e8 13 00 00 00       	call   80481c9 <init_cond>
 80481b6:	c7 04 24 56 a5 04 08 	movl   $0x804a556,(%esp)
 80481bd:	e8 34 ff ff ff       	call   80480f6 <printk>
 80481c2:	b8 00 00 00 00       	mov    $0x0,%eax
 80481c7:	c9                   	leave  
 80481c8:	c3                   	ret    

080481c9 <init_cond>:
 80481c9:	55                   	push   %ebp
 80481ca:	89 e5                	mov    %esp,%ebp
 80481cc:	83 ec 38             	sub    $0x38,%esp
 80481cf:	e8 18 05 00 00       	call   80486ec <init_idt>
 80481d4:	e8 4f 08 00 00       	call   8048a28 <init_intr>
 80481d9:	e8 62 19 00 00       	call   8049b40 <init_serial>
 80481de:	e8 f3 1f 00 00       	call   804a1d6 <init_timer>
 80481e3:	e8 f2 0d 00 00       	call   8048fda <init_mem>
 80481e8:	c7 04 24 01 00 00 00 	movl   $0x1,(%esp)
 80481ef:	e8 58 0a 00 00       	call   8048c4c <page_alloc>
 80481f4:	89 45 f4             	mov    %eax,-0xc(%ebp)
 80481f7:	8b 45 f4             	mov    -0xc(%ebp),%eax
 80481fa:	89 04 24             	mov    %eax,(%esp)
 80481fd:	e8 4a ff ff ff       	call   804814c <page2pa>
 8048202:	89 45 f0             	mov    %eax,-0x10(%ebp)
 8048205:	8b 45 f4             	mov    -0xc(%ebp),%eax
 8048208:	89 04 24             	mov    %eax,(%esp)
 804820b:	e8 53 ff ff ff       	call   8048163 <page2kva>
 8048210:	89 45 ec             	mov    %eax,-0x14(%ebp)
 8048213:	c7 44 24 08 00 10 00 	movl   $0x1000,0x8(%esp)
 804821a:	00 
 804821b:	c7 44 24 04 00 f0 04 	movl   $0x804f000,0x4(%esp)
 8048222:	08 
 8048223:	8b 45 ec             	mov    -0x14(%ebp),%eax
 8048226:	89 04 24             	mov    %eax,(%esp)
 8048229:	e8 80 1d 00 00       	call   8049fae <memcpy>
 804822e:	8b 45 ec             	mov    -0x14(%ebp),%eax
 8048231:	89 04 24             	mov    %eax,(%esp)
 8048234:	e8 9f 0e 00 00       	call   80490d8 <loader>
 8048239:	89 45 e8             	mov    %eax,-0x18(%ebp)
 804823c:	8b 45 f0             	mov    -0x10(%ebp),%eax
 804823f:	89 45 e4             	mov    %eax,-0x1c(%ebp)
 8048242:	8b 45 e4             	mov    -0x1c(%ebp),%eax
 8048245:	0f 22 d8             	mov    %eax,%cr3
 8048248:	8b 45 e8             	mov    -0x18(%ebp),%eax
 804824b:	89 44 24 04          	mov    %eax,0x4(%esp)
 804824f:	c7 04 24 6c a5 04 08 	movl   $0x804a56c,(%esp)
 8048256:	e8 9b fe ff ff       	call   80480f6 <printk>
 804825b:	8b 45 e8             	mov    -0x18(%ebp),%eax
 804825e:	ff d0                	call   *%eax
 8048260:	c7 04 24 74 a5 04 08 	movl   $0x804a574,(%esp)
 8048267:	e8 8a fe ff ff       	call   80480f6 <printk>
 804826c:	c9                   	leave  
 804826d:	c3                   	ret    

0804826e <out_byte>:
 804826e:	55                   	push   %ebp
 804826f:	89 e5                	mov    %esp,%ebp
 8048271:	83 ec 08             	sub    $0x8,%esp
 8048274:	8b 55 08             	mov    0x8(%ebp),%edx
 8048277:	8b 45 0c             	mov    0xc(%ebp),%eax
 804827a:	66 89 55 fc          	mov    %dx,-0x4(%ebp)
 804827e:	88 45 f8             	mov    %al,-0x8(%ebp)
 8048281:	0f b7 55 fc          	movzwl -0x4(%ebp),%edx
 8048285:	0f b6 45 f8          	movzbl -0x8(%ebp),%eax
 8048289:	ee                   	out    %al,(%dx)
 804828a:	c9                   	leave  
 804828b:	c3                   	ret    

0804828c <do_syscall>:
 804828c:	55                   	push   %ebp
 804828d:	89 e5                	mov    %esp,%ebp
 804828f:	83 ec 38             	sub    $0x38,%esp
 8048292:	8b 45 08             	mov    0x8(%ebp),%eax
 8048295:	8b 40 1c             	mov    0x1c(%eax),%eax
 8048298:	83 f8 3d             	cmp    $0x3d,%eax
 804829b:	74 5e                	je     80482fb <do_syscall+0x6f>
 804829d:	83 f8 3d             	cmp    $0x3d,%eax
 80482a0:	77 0a                	ja     80482ac <do_syscall+0x20>
 80482a2:	83 f8 3c             	cmp    $0x3c,%eax
 80482a5:	74 1c                	je     80482c3 <do_syscall+0x37>
 80482a7:	e9 cb 00 00 00       	jmp    8048377 <do_syscall+0xeb>
 80482ac:	83 f8 3e             	cmp    $0x3e,%eax
 80482af:	0f 84 80 00 00 00    	je     8048335 <do_syscall+0xa9>
 80482b5:	83 f8 3f             	cmp    $0x3f,%eax
 80482b8:	0f 84 97 00 00 00    	je     8048355 <do_syscall+0xc9>
 80482be:	e9 b4 00 00 00       	jmp    8048377 <do_syscall+0xeb>
 80482c3:	8b 45 08             	mov    0x8(%ebp),%eax
 80482c6:	8b 48 10             	mov    0x10(%eax),%ecx
 80482c9:	8b 45 08             	mov    0x8(%ebp),%eax
 80482cc:	8b 50 18             	mov    0x18(%eax),%edx
 80482cf:	89 d0                	mov    %edx,%eax
 80482d1:	c1 e0 02             	shl    $0x2,%eax
 80482d4:	01 d0                	add    %edx,%eax
 80482d6:	c1 e0 06             	shl    $0x6,%eax
 80482d9:	01 c8                	add    %ecx,%eax
 80482db:	89 45 f4             	mov    %eax,-0xc(%ebp)
 80482de:	8b 15 00 d0 04 08    	mov    0x804d000,%edx
 80482e4:	8b 45 f4             	mov    -0xc(%ebp),%eax
 80482e7:	01 d0                	add    %edx,%eax
 80482e9:	89 45 f0             	mov    %eax,-0x10(%ebp)
 80482ec:	8b 45 08             	mov    0x8(%ebp),%eax
 80482ef:	8b 40 14             	mov    0x14(%eax),%eax
 80482f2:	89 c2                	mov    %eax,%edx
 80482f4:	8b 45 f0             	mov    -0x10(%ebp),%eax
 80482f7:	88 10                	mov    %dl,(%eax)
 80482f9:	eb 7c                	jmp    8048377 <do_syscall+0xeb>
 80482fb:	90                   	nop
 80482fc:	c7 45 e8 fd 03 00 00 	movl   $0x3fd,-0x18(%ebp)
 8048303:	8b 45 e8             	mov    -0x18(%ebp),%eax
 8048306:	89 c2                	mov    %eax,%edx
 8048308:	ec                   	in     (%dx),%al
 8048309:	88 45 e7             	mov    %al,-0x19(%ebp)
 804830c:	0f b6 45 e7          	movzbl -0x19(%ebp),%eax
 8048310:	0f b6 c0             	movzbl %al,%eax
 8048313:	83 e0 20             	and    $0x20,%eax
 8048316:	85 c0                	test   %eax,%eax
 8048318:	74 e2                	je     80482fc <do_syscall+0x70>
 804831a:	8b 45 08             	mov    0x8(%ebp),%eax
 804831d:	8b 40 10             	mov    0x10(%eax),%eax
 8048320:	0f be c0             	movsbl %al,%eax
 8048323:	89 44 24 04          	mov    %eax,0x4(%esp)
 8048327:	c7 04 24 f8 03 00 00 	movl   $0x3f8,(%esp)
 804832e:	e8 3b ff ff ff       	call   804826e <out_byte>
 8048333:	eb 42                	jmp    8048377 <do_syscall+0xeb>
 8048335:	8b 15 00 d0 04 08    	mov    0x804d000,%edx
 804833b:	8b 45 08             	mov    0x8(%ebp),%eax
 804833e:	8b 40 10             	mov    0x10(%eax),%eax
 8048341:	01 d0                	add    %edx,%eax
 8048343:	89 45 ec             	mov    %eax,-0x14(%ebp)
 8048346:	8b 45 08             	mov    0x8(%ebp),%eax
 8048349:	8b 40 18             	mov    0x18(%eax),%eax
 804834c:	89 c2                	mov    %eax,%edx
 804834e:	8b 45 ec             	mov    -0x14(%ebp),%eax
 8048351:	88 10                	mov    %dl,(%eax)
 8048353:	eb 22                	jmp    8048377 <do_syscall+0xeb>
 8048355:	8b 45 08             	mov    0x8(%ebp),%eax
 8048358:	8b 40 10             	mov    0x10(%eax),%eax
 804835b:	89 c2                	mov    %eax,%edx
 804835d:	a1 00 d0 04 08       	mov    0x804d000,%eax
 8048362:	c7 44 24 08 00 fa 00 	movl   $0xfa00,0x8(%esp)
 8048369:	00 
 804836a:	89 54 24 04          	mov    %edx,0x4(%esp)
 804836e:	89 04 24             	mov    %eax,(%esp)
 8048371:	e8 f0 1a 00 00       	call   8049e66 <memset>
 8048376:	90                   	nop
 8048377:	c9                   	leave  
 8048378:	c3                   	ret    

08048379 <_panic>:
 8048379:	55                   	push   %ebp
 804837a:	89 e5                	mov    %esp,%ebp
 804837c:	83 ec 28             	sub    $0x28,%esp
 804837f:	a1 10 80 05 08       	mov    0x8058010,%eax
 8048384:	85 c0                	test   %eax,%eax
 8048386:	74 02                	je     804838a <_panic+0x11>
 8048388:	eb 48                	jmp    80483d2 <_panic+0x59>
 804838a:	8b 45 10             	mov    0x10(%ebp),%eax
 804838d:	a3 10 80 05 08       	mov    %eax,0x8058010
 8048392:	fa                   	cli    
 8048393:	fc                   	cld    
 8048394:	8d 45 14             	lea    0x14(%ebp),%eax
 8048397:	89 45 f4             	mov    %eax,-0xc(%ebp)
 804839a:	8b 45 0c             	mov    0xc(%ebp),%eax
 804839d:	89 44 24 08          	mov    %eax,0x8(%esp)
 80483a1:	8b 45 08             	mov    0x8(%ebp),%eax
 80483a4:	89 44 24 04          	mov    %eax,0x4(%esp)
 80483a8:	c7 04 24 89 a5 04 08 	movl   $0x804a589,(%esp)
 80483af:	e8 42 fd ff ff       	call   80480f6 <printk>
 80483b4:	8b 45 f4             	mov    -0xc(%ebp),%eax
 80483b7:	89 44 24 04          	mov    %eax,0x4(%esp)
 80483bb:	8b 45 10             	mov    0x10(%ebp),%eax
 80483be:	89 04 24             	mov    %eax,(%esp)
 80483c1:	e8 fd fc ff ff       	call   80480c3 <vprintk>
 80483c6:	c7 04 24 a1 a5 04 08 	movl   $0x804a5a1,(%esp)
 80483cd:	e8 24 fd ff ff       	call   80480f6 <printk>
 80483d2:	f4                   	hlt    
 80483d3:	c9                   	leave  
 80483d4:	c3                   	ret    

080483d5 <_warn>:
 80483d5:	55                   	push   %ebp
 80483d6:	89 e5                	mov    %esp,%ebp
 80483d8:	83 ec 28             	sub    $0x28,%esp
 80483db:	8d 45 14             	lea    0x14(%ebp),%eax
 80483de:	89 45 f4             	mov    %eax,-0xc(%ebp)
 80483e1:	8b 45 0c             	mov    0xc(%ebp),%eax
 80483e4:	89 44 24 08          	mov    %eax,0x8(%esp)
 80483e8:	8b 45 08             	mov    0x8(%ebp),%eax
 80483eb:	89 44 24 04          	mov    %eax,0x4(%esp)
 80483ef:	c7 04 24 a3 a5 04 08 	movl   $0x804a5a3,(%esp)
 80483f6:	e8 fb fc ff ff       	call   80480f6 <printk>
 80483fb:	8b 45 f4             	mov    -0xc(%ebp),%eax
 80483fe:	89 44 24 04          	mov    %eax,0x4(%esp)
 8048402:	8b 45 10             	mov    0x10(%ebp),%eax
 8048405:	89 04 24             	mov    %eax,(%esp)
 8048408:	e8 b6 fc ff ff       	call   80480c3 <vprintk>
 804840d:	c7 04 24 a1 a5 04 08 	movl   $0x804a5a1,(%esp)
 8048414:	e8 dd fc ff ff       	call   80480f6 <printk>
 8048419:	c9                   	leave  
 804841a:	c3                   	ret    

0804841b <set_timer_intr_handler>:
 804841b:	55                   	push   %ebp
 804841c:	89 e5                	mov    %esp,%ebp
 804841e:	8b 45 08             	mov    0x8(%ebp),%eax
 8048421:	a3 00 80 05 08       	mov    %eax,0x8058000
 8048426:	5d                   	pop    %ebp
 8048427:	c3                   	ret    

08048428 <set_keyboard_intr_handler>:
 8048428:	55                   	push   %ebp
 8048429:	89 e5                	mov    %esp,%ebp
 804842b:	8b 45 08             	mov    0x8(%ebp),%eax
 804842e:	a3 04 80 05 08       	mov    %eax,0x8058004
 8048433:	5d                   	pop    %ebp
 8048434:	c3                   	ret    

08048435 <irq_handle>:
 8048435:	55                   	push   %ebp
 8048436:	89 e5                	mov    %esp,%ebp
 8048438:	83 ec 48             	sub    $0x48,%esp
 804843b:	8b 45 08             	mov    0x8(%ebp),%eax
 804843e:	8b 40 20             	mov    0x20(%eax),%eax
 8048441:	3d 80 00 00 00       	cmp    $0x80,%eax
 8048446:	75 10                	jne    8048458 <irq_handle+0x23>
 8048448:	8b 45 08             	mov    0x8(%ebp),%eax
 804844b:	89 04 24             	mov    %eax,(%esp)
 804844e:	e8 39 fe ff ff       	call   804828c <do_syscall>
 8048453:	e9 67 01 00 00       	jmp    80485bf <irq_handle+0x18a>
 8048458:	8b 45 08             	mov    0x8(%ebp),%eax
 804845b:	8b 40 20             	mov    0x20(%eax),%eax
 804845e:	3d e7 03 00 00       	cmp    $0x3e7,%eax
 8048463:	7f 73                	jg     80484d8 <irq_handle+0xa3>
 8048465:	8b 45 08             	mov    0x8(%ebp),%eax
 8048468:	8b 40 20             	mov    0x20(%eax),%eax
 804846b:	83 f8 ff             	cmp    $0xffffffff,%eax
 804846e:	75 1e                	jne    804848e <irq_handle+0x59>
 8048470:	c7 44 24 08 1d 00 00 	movl   $0x1d,0x8(%esp)
 8048477:	00 
 8048478:	c7 44 24 04 49 a6 04 	movl   $0x804a649,0x4(%esp)
 804847f:	08 
 8048480:	c7 04 24 c0 a5 04 08 	movl   $0x804a5c0,(%esp)
 8048487:	e8 6a fc ff ff       	call   80480f6 <printk>
 804848c:	eb 26                	jmp    80484b4 <irq_handle+0x7f>
 804848e:	8b 45 08             	mov    0x8(%ebp),%eax
 8048491:	8b 40 20             	mov    0x20(%eax),%eax
 8048494:	89 44 24 0c          	mov    %eax,0xc(%esp)
 8048498:	c7 44 24 08 20 00 00 	movl   $0x20,0x8(%esp)
 804849f:	00 
 80484a0:	c7 44 24 04 49 a6 04 	movl   $0x804a649,0x4(%esp)
 80484a7:	08 
 80484a8:	c7 04 24 e0 a5 04 08 	movl   $0x804a5e0,(%esp)
 80484af:	e8 42 fc ff ff       	call   80480f6 <printk>
 80484b4:	c7 44 24 0c 03 a6 04 	movl   $0x804a603,0xc(%esp)
 80484bb:	08 
 80484bc:	c7 44 24 08 05 a6 04 	movl   $0x804a605,0x8(%esp)
 80484c3:	08 
 80484c4:	c7 44 24 04 22 00 00 	movl   $0x22,0x4(%esp)
 80484cb:	00 
 80484cc:	c7 04 24 1a a6 04 08 	movl   $0x804a61a,(%esp)
 80484d3:	e8 a1 fe ff ff       	call   8048379 <_panic>
 80484d8:	8b 45 08             	mov    0x8(%ebp),%eax
 80484db:	8b 40 20             	mov    0x20(%eax),%eax
 80484de:	3d e8 03 00 00       	cmp    $0x3e8,%eax
 80484e3:	75 0c                	jne    80484f1 <irq_handle+0xbc>
 80484e5:	a1 00 80 05 08       	mov    0x8058000,%eax
 80484ea:	ff d0                	call   *%eax
 80484ec:	e9 ce 00 00 00       	jmp    80485bf <irq_handle+0x18a>
 80484f1:	8b 45 08             	mov    0x8(%ebp),%eax
 80484f4:	8b 40 20             	mov    0x20(%eax),%eax
 80484f7:	3d e9 03 00 00       	cmp    $0x3e9,%eax
 80484fc:	0f 85 99 00 00 00    	jne    804859b <irq_handle+0x166>
 8048502:	c7 45 ec 60 00 00 00 	movl   $0x60,-0x14(%ebp)
 8048509:	8b 45 ec             	mov    -0x14(%ebp),%eax
 804850c:	89 c2                	mov    %eax,%edx
 804850e:	ec                   	in     (%dx),%al
 804850f:	88 45 eb             	mov    %al,-0x15(%ebp)
 8048512:	0f b6 45 eb          	movzbl -0x15(%ebp),%eax
 8048516:	0f b6 c0             	movzbl %al,%eax
 8048519:	89 45 f4             	mov    %eax,-0xc(%ebp)
 804851c:	c7 45 e4 61 00 00 00 	movl   $0x61,-0x1c(%ebp)
 8048523:	8b 45 e4             	mov    -0x1c(%ebp),%eax
 8048526:	89 c2                	mov    %eax,%edx
 8048528:	ec                   	in     (%dx),%al
 8048529:	88 45 e3             	mov    %al,-0x1d(%ebp)
 804852c:	0f b6 45 e3          	movzbl -0x1d(%ebp),%eax
 8048530:	0f b6 c0             	movzbl %al,%eax
 8048533:	89 45 f0             	mov    %eax,-0x10(%ebp)
 8048536:	8b 45 f0             	mov    -0x10(%ebp),%eax
 8048539:	83 c8 80             	or     $0xffffff80,%eax
 804853c:	0f b6 c0             	movzbl %al,%eax
 804853f:	c7 45 dc 61 00 00 00 	movl   $0x61,-0x24(%ebp)
 8048546:	88 45 db             	mov    %al,-0x25(%ebp)
 8048549:	0f b6 45 db          	movzbl -0x25(%ebp),%eax
 804854d:	8b 55 dc             	mov    -0x24(%ebp),%edx
 8048550:	ee                   	out    %al,(%dx)
 8048551:	8b 45 f0             	mov    -0x10(%ebp),%eax
 8048554:	0f b6 c0             	movzbl %al,%eax
 8048557:	c7 45 d4 61 00 00 00 	movl   $0x61,-0x2c(%ebp)
 804855e:	88 45 d3             	mov    %al,-0x2d(%ebp)
 8048561:	0f b6 45 d3          	movzbl -0x2d(%ebp),%eax
 8048565:	8b 55 d4             	mov    -0x2c(%ebp),%edx
 8048568:	ee                   	out    %al,(%dx)
 8048569:	8b 45 f4             	mov    -0xc(%ebp),%eax
 804856c:	89 44 24 0c          	mov    %eax,0xc(%esp)
 8048570:	c7 44 24 08 2e 00 00 	movl   $0x2e,0x8(%esp)
 8048577:	00 
 8048578:	c7 44 24 04 49 a6 04 	movl   $0x804a649,0x4(%esp)
 804857f:	08 
 8048580:	c7 04 24 32 a6 04 08 	movl   $0x804a632,(%esp)
 8048587:	e8 6a fb ff ff       	call   80480f6 <printk>
 804858c:	a1 04 80 05 08       	mov    0x8058004,%eax
 8048591:	8b 55 f4             	mov    -0xc(%ebp),%edx
 8048594:	89 14 24             	mov    %edx,(%esp)
 8048597:	ff d0                	call   *%eax
 8048599:	eb 24                	jmp    80485bf <irq_handle+0x18a>
 804859b:	c7 44 24 0c 03 a6 04 	movl   $0x804a603,0xc(%esp)
 80485a2:	08 
 80485a3:	c7 44 24 08 05 a6 04 	movl   $0x804a605,0x8(%esp)
 80485aa:	08 
 80485ab:	c7 44 24 04 31 00 00 	movl   $0x31,0x4(%esp)
 80485b2:	00 
 80485b3:	c7 04 24 1a a6 04 08 	movl   $0x804a61a,(%esp)
 80485ba:	e8 ba fd ff ff       	call   8048379 <_panic>
 80485bf:	c9                   	leave  
 80485c0:	c3                   	ret    

080485c1 <set_intr>:
 80485c1:	55                   	push   %ebp
 80485c2:	89 e5                	mov    %esp,%ebp
 80485c4:	8b 45 10             	mov    0x10(%ebp),%eax
 80485c7:	89 c2                	mov    %eax,%edx
 80485c9:	8b 45 08             	mov    0x8(%ebp),%eax
 80485cc:	66 89 10             	mov    %dx,(%eax)
 80485cf:	8b 45 0c             	mov    0xc(%ebp),%eax
 80485d2:	8d 14 c5 00 00 00 00 	lea    0x0(,%eax,8),%edx
 80485d9:	8b 45 08             	mov    0x8(%ebp),%eax
 80485dc:	66 89 50 02          	mov    %dx,0x2(%eax)
 80485e0:	8b 45 08             	mov    0x8(%ebp),%eax
 80485e3:	c6 40 04 00          	movb   $0x0,0x4(%eax)
 80485e7:	8b 45 08             	mov    0x8(%ebp),%eax
 80485ea:	0f b6 50 05          	movzbl 0x5(%eax),%edx
 80485ee:	83 e2 f0             	and    $0xfffffff0,%edx
 80485f1:	83 ca 0e             	or     $0xe,%edx
 80485f4:	88 50 05             	mov    %dl,0x5(%eax)
 80485f7:	8b 45 08             	mov    0x8(%ebp),%eax
 80485fa:	0f b6 50 05          	movzbl 0x5(%eax),%edx
 80485fe:	83 e2 ef             	and    $0xffffffef,%edx
 8048601:	88 50 05             	mov    %dl,0x5(%eax)
 8048604:	8b 45 14             	mov    0x14(%ebp),%eax
 8048607:	83 e0 03             	and    $0x3,%eax
 804860a:	89 c2                	mov    %eax,%edx
 804860c:	8b 45 08             	mov    0x8(%ebp),%eax
 804860f:	83 e2 03             	and    $0x3,%edx
 8048612:	89 d1                	mov    %edx,%ecx
 8048614:	c1 e1 05             	shl    $0x5,%ecx
 8048617:	0f b6 50 05          	movzbl 0x5(%eax),%edx
 804861b:	83 e2 9f             	and    $0xffffff9f,%edx
 804861e:	09 ca                	or     %ecx,%edx
 8048620:	88 50 05             	mov    %dl,0x5(%eax)
 8048623:	8b 45 08             	mov    0x8(%ebp),%eax
 8048626:	0f b6 50 05          	movzbl 0x5(%eax),%edx
 804862a:	83 ca 80             	or     $0xffffff80,%edx
 804862d:	88 50 05             	mov    %dl,0x5(%eax)
 8048630:	8b 45 10             	mov    0x10(%ebp),%eax
 8048633:	c1 e8 10             	shr    $0x10,%eax
 8048636:	89 c2                	mov    %eax,%edx
 8048638:	8b 45 08             	mov    0x8(%ebp),%eax
 804863b:	66 89 50 06          	mov    %dx,0x6(%eax)
 804863f:	5d                   	pop    %ebp
 8048640:	c3                   	ret    

08048641 <set_trap>:
 8048641:	55                   	push   %ebp
 8048642:	89 e5                	mov    %esp,%ebp
 8048644:	8b 45 10             	mov    0x10(%ebp),%eax
 8048647:	89 c2                	mov    %eax,%edx
 8048649:	8b 45 08             	mov    0x8(%ebp),%eax
 804864c:	66 89 10             	mov    %dx,(%eax)
 804864f:	8b 45 0c             	mov    0xc(%ebp),%eax
 8048652:	8d 14 c5 00 00 00 00 	lea    0x0(,%eax,8),%edx
 8048659:	8b 45 08             	mov    0x8(%ebp),%eax
 804865c:	66 89 50 02          	mov    %dx,0x2(%eax)
 8048660:	8b 45 08             	mov    0x8(%ebp),%eax
 8048663:	c6 40 04 00          	movb   $0x0,0x4(%eax)
 8048667:	8b 45 08             	mov    0x8(%ebp),%eax
 804866a:	0f b6 50 05          	movzbl 0x5(%eax),%edx
 804866e:	83 ca 0f             	or     $0xf,%edx
 8048671:	88 50 05             	mov    %dl,0x5(%eax)
 8048674:	8b 45 08             	mov    0x8(%ebp),%eax
 8048677:	0f b6 50 05          	movzbl 0x5(%eax),%edx
 804867b:	83 e2 ef             	and    $0xffffffef,%edx
 804867e:	88 50 05             	mov    %dl,0x5(%eax)
 8048681:	8b 45 14             	mov    0x14(%ebp),%eax
 8048684:	83 e0 03             	and    $0x3,%eax
 8048687:	89 c2                	mov    %eax,%edx
 8048689:	8b 45 08             	mov    0x8(%ebp),%eax
 804868c:	83 e2 03             	and    $0x3,%edx
 804868f:	89 d1                	mov    %edx,%ecx
 8048691:	c1 e1 05             	shl    $0x5,%ecx
 8048694:	0f b6 50 05          	movzbl 0x5(%eax),%edx
 8048698:	83 e2 9f             	and    $0xffffff9f,%edx
 804869b:	09 ca                	or     %ecx,%edx
 804869d:	88 50 05             	mov    %dl,0x5(%eax)
 80486a0:	8b 45 08             	mov    0x8(%ebp),%eax
 80486a3:	0f b6 50 05          	movzbl 0x5(%eax),%edx
 80486a7:	83 ca 80             	or     $0xffffff80,%edx
 80486aa:	88 50 05             	mov    %dl,0x5(%eax)
 80486ad:	8b 45 10             	mov    0x10(%ebp),%eax
 80486b0:	c1 e8 10             	shr    $0x10,%eax
 80486b3:	89 c2                	mov    %eax,%edx
 80486b5:	8b 45 08             	mov    0x8(%ebp),%eax
 80486b8:	66 89 50 06          	mov    %dx,0x6(%eax)
 80486bc:	5d                   	pop    %ebp
 80486bd:	c3                   	ret    

080486be <save_idt>:
 80486be:	55                   	push   %ebp
 80486bf:	89 e5                	mov    %esp,%ebp
 80486c1:	8b 45 0c             	mov    0xc(%ebp),%eax
 80486c4:	83 e8 01             	sub    $0x1,%eax
 80486c7:	66 a3 08 80 05 08    	mov    %ax,0x8058008
 80486cd:	8b 45 08             	mov    0x8(%ebp),%eax
 80486d0:	66 a3 0a 80 05 08    	mov    %ax,0x805800a
 80486d6:	8b 45 08             	mov    0x8(%ebp),%eax
 80486d9:	c1 e8 10             	shr    $0x10,%eax
 80486dc:	66 a3 0c 80 05 08    	mov    %ax,0x805800c
 80486e2:	b8 08 80 05 08       	mov    $0x8058008,%eax
 80486e7:	0f 01 18             	lidtl  (%eax)
 80486ea:	5d                   	pop    %ebp
 80486eb:	c3                   	ret    

080486ec <init_idt>:
 80486ec:	55                   	push   %ebp
 80486ed:	89 e5                	mov    %esp,%ebp
 80486ef:	83 ec 20             	sub    $0x20,%esp
 80486f2:	c7 45 fc 00 00 00 00 	movl   $0x0,-0x4(%ebp)
 80486f9:	eb 31                	jmp    804872c <init_idt+0x40>
 80486fb:	b8 5b 94 04 08       	mov    $0x804945b,%eax
 8048700:	8b 55 fc             	mov    -0x4(%ebp),%edx
 8048703:	c1 e2 03             	shl    $0x3,%edx
 8048706:	81 c2 20 80 05 08    	add    $0x8058020,%edx
 804870c:	c7 44 24 0c 00 00 00 	movl   $0x0,0xc(%esp)
 8048713:	00 
 8048714:	89 44 24 08          	mov    %eax,0x8(%esp)
 8048718:	c7 44 24 04 01 00 00 	movl   $0x1,0x4(%esp)
 804871f:	00 
 8048720:	89 14 24             	mov    %edx,(%esp)
 8048723:	e8 19 ff ff ff       	call   8048641 <set_trap>
 8048728:	83 45 fc 01          	addl   $0x1,-0x4(%ebp)
 804872c:	81 7d fc ff 00 00 00 	cmpl   $0xff,-0x4(%ebp)
 8048733:	7e c6                	jle    80486fb <init_idt+0xf>
 8048735:	b8 b0 93 04 08       	mov    $0x80493b0,%eax
 804873a:	c7 44 24 0c 00 00 00 	movl   $0x0,0xc(%esp)
 8048741:	00 
 8048742:	89 44 24 08          	mov    %eax,0x8(%esp)
 8048746:	c7 44 24 04 01 00 00 	movl   $0x1,0x4(%esp)
 804874d:	00 
 804874e:	c7 04 24 20 80 05 08 	movl   $0x8058020,(%esp)
 8048755:	e8 e7 fe ff ff       	call   8048641 <set_trap>
 804875a:	b8 b9 93 04 08       	mov    $0x80493b9,%eax
 804875f:	c7 44 24 0c 00 00 00 	movl   $0x0,0xc(%esp)
 8048766:	00 
 8048767:	89 44 24 08          	mov    %eax,0x8(%esp)
 804876b:	c7 44 24 04 01 00 00 	movl   $0x1,0x4(%esp)
 8048772:	00 
 8048773:	c7 04 24 28 80 05 08 	movl   $0x8058028,(%esp)
 804877a:	e8 c2 fe ff ff       	call   8048641 <set_trap>
 804877f:	b8 c2 93 04 08       	mov    $0x80493c2,%eax
 8048784:	c7 44 24 0c 00 00 00 	movl   $0x0,0xc(%esp)
 804878b:	00 
 804878c:	89 44 24 08          	mov    %eax,0x8(%esp)
 8048790:	c7 44 24 04 01 00 00 	movl   $0x1,0x4(%esp)
 8048797:	00 
 8048798:	c7 04 24 30 80 05 08 	movl   $0x8058030,(%esp)
 804879f:	e8 9d fe ff ff       	call   8048641 <set_trap>
 80487a4:	b8 cb 93 04 08       	mov    $0x80493cb,%eax
 80487a9:	c7 44 24 0c 00 00 00 	movl   $0x0,0xc(%esp)
 80487b0:	00 
 80487b1:	89 44 24 08          	mov    %eax,0x8(%esp)
 80487b5:	c7 44 24 04 01 00 00 	movl   $0x1,0x4(%esp)
 80487bc:	00 
 80487bd:	c7 04 24 38 80 05 08 	movl   $0x8058038,(%esp)
 80487c4:	e8 78 fe ff ff       	call   8048641 <set_trap>
 80487c9:	b8 d4 93 04 08       	mov    $0x80493d4,%eax
 80487ce:	c7 44 24 0c 00 00 00 	movl   $0x0,0xc(%esp)
 80487d5:	00 
 80487d6:	89 44 24 08          	mov    %eax,0x8(%esp)
 80487da:	c7 44 24 04 01 00 00 	movl   $0x1,0x4(%esp)
 80487e1:	00 
 80487e2:	c7 04 24 40 80 05 08 	movl   $0x8058040,(%esp)
 80487e9:	e8 53 fe ff ff       	call   8048641 <set_trap>
 80487ee:	b8 dd 93 04 08       	mov    $0x80493dd,%eax
 80487f3:	c7 44 24 0c 00 00 00 	movl   $0x0,0xc(%esp)
 80487fa:	00 
 80487fb:	89 44 24 08          	mov    %eax,0x8(%esp)
 80487ff:	c7 44 24 04 01 00 00 	movl   $0x1,0x4(%esp)
 8048806:	00 
 8048807:	c7 04 24 48 80 05 08 	movl   $0x8058048,(%esp)
 804880e:	e8 2e fe ff ff       	call   8048641 <set_trap>
 8048813:	b8 e6 93 04 08       	mov    $0x80493e6,%eax
 8048818:	c7 44 24 0c 00 00 00 	movl   $0x0,0xc(%esp)
 804881f:	00 
 8048820:	89 44 24 08          	mov    %eax,0x8(%esp)
 8048824:	c7 44 24 04 01 00 00 	movl   $0x1,0x4(%esp)
 804882b:	00 
 804882c:	c7 04 24 50 80 05 08 	movl   $0x8058050,(%esp)
 8048833:	e8 09 fe ff ff       	call   8048641 <set_trap>
 8048838:	b8 ef 93 04 08       	mov    $0x80493ef,%eax
 804883d:	c7 44 24 0c 00 00 00 	movl   $0x0,0xc(%esp)
 8048844:	00 
 8048845:	89 44 24 08          	mov    %eax,0x8(%esp)
 8048849:	c7 44 24 04 01 00 00 	movl   $0x1,0x4(%esp)
 8048850:	00 
 8048851:	c7 04 24 58 80 05 08 	movl   $0x8058058,(%esp)
 8048858:	e8 e4 fd ff ff       	call   8048641 <set_trap>
 804885d:	b8 f8 93 04 08       	mov    $0x80493f8,%eax
 8048862:	c7 44 24 0c 00 00 00 	movl   $0x0,0xc(%esp)
 8048869:	00 
 804886a:	89 44 24 08          	mov    %eax,0x8(%esp)
 804886e:	c7 44 24 04 01 00 00 	movl   $0x1,0x4(%esp)
 8048875:	00 
 8048876:	c7 04 24 60 80 05 08 	movl   $0x8058060,(%esp)
 804887d:	e8 bf fd ff ff       	call   8048641 <set_trap>
 8048882:	b8 ff 93 04 08       	mov    $0x80493ff,%eax
 8048887:	c7 44 24 0c 00 00 00 	movl   $0x0,0xc(%esp)
 804888e:	00 
 804888f:	89 44 24 08          	mov    %eax,0x8(%esp)
 8048893:	c7 44 24 04 01 00 00 	movl   $0x1,0x4(%esp)
 804889a:	00 
 804889b:	c7 04 24 68 80 05 08 	movl   $0x8058068,(%esp)
 80488a2:	e8 9a fd ff ff       	call   8048641 <set_trap>
 80488a7:	b8 08 94 04 08       	mov    $0x8049408,%eax
 80488ac:	c7 44 24 0c 00 00 00 	movl   $0x0,0xc(%esp)
 80488b3:	00 
 80488b4:	89 44 24 08          	mov    %eax,0x8(%esp)
 80488b8:	c7 44 24 04 01 00 00 	movl   $0x1,0x4(%esp)
 80488bf:	00 
 80488c0:	c7 04 24 70 80 05 08 	movl   $0x8058070,(%esp)
 80488c7:	e8 75 fd ff ff       	call   8048641 <set_trap>
 80488cc:	b8 0f 94 04 08       	mov    $0x804940f,%eax
 80488d1:	c7 44 24 0c 00 00 00 	movl   $0x0,0xc(%esp)
 80488d8:	00 
 80488d9:	89 44 24 08          	mov    %eax,0x8(%esp)
 80488dd:	c7 44 24 04 01 00 00 	movl   $0x1,0x4(%esp)
 80488e4:	00 
 80488e5:	c7 04 24 78 80 05 08 	movl   $0x8058078,(%esp)
 80488ec:	e8 50 fd ff ff       	call   8048641 <set_trap>
 80488f1:	b8 16 94 04 08       	mov    $0x8049416,%eax
 80488f6:	c7 44 24 0c 00 00 00 	movl   $0x0,0xc(%esp)
 80488fd:	00 
 80488fe:	89 44 24 08          	mov    %eax,0x8(%esp)
 8048902:	c7 44 24 04 01 00 00 	movl   $0x1,0x4(%esp)
 8048909:	00 
 804890a:	c7 04 24 80 80 05 08 	movl   $0x8058080,(%esp)
 8048911:	e8 2b fd ff ff       	call   8048641 <set_trap>
 8048916:	b8 1d 94 04 08       	mov    $0x804941d,%eax
 804891b:	c7 44 24 0c 00 00 00 	movl   $0x0,0xc(%esp)
 8048922:	00 
 8048923:	89 44 24 08          	mov    %eax,0x8(%esp)
 8048927:	c7 44 24 04 01 00 00 	movl   $0x1,0x4(%esp)
 804892e:	00 
 804892f:	c7 04 24 88 80 05 08 	movl   $0x8058088,(%esp)
 8048936:	e8 06 fd ff ff       	call   8048641 <set_trap>
 804893b:	b8 24 94 04 08       	mov    $0x8049424,%eax
 8048940:	c7 44 24 0c 00 00 00 	movl   $0x0,0xc(%esp)
 8048947:	00 
 8048948:	89 44 24 08          	mov    %eax,0x8(%esp)
 804894c:	c7 44 24 04 01 00 00 	movl   $0x1,0x4(%esp)
 8048953:	00 
 8048954:	c7 04 24 90 80 05 08 	movl   $0x8058090,(%esp)
 804895b:	e8 e1 fc ff ff       	call   8048641 <set_trap>
 8048960:	b8 2b 94 04 08       	mov    $0x804942b,%eax
 8048965:	c7 44 24 0c 00 00 00 	movl   $0x0,0xc(%esp)
 804896c:	00 
 804896d:	89 44 24 08          	mov    %eax,0x8(%esp)
 8048971:	c7 44 24 04 01 00 00 	movl   $0x1,0x4(%esp)
 8048978:	00 
 8048979:	c7 04 24 20 84 05 08 	movl   $0x8058420,(%esp)
 8048980:	e8 bc fc ff ff       	call   8048641 <set_trap>
 8048985:	b8 37 94 04 08       	mov    $0x8049437,%eax
 804898a:	c7 44 24 0c 00 00 00 	movl   $0x0,0xc(%esp)
 8048991:	00 
 8048992:	89 44 24 08          	mov    %eax,0x8(%esp)
 8048996:	c7 44 24 04 01 00 00 	movl   $0x1,0x4(%esp)
 804899d:	00 
 804899e:	c7 04 24 20 81 05 08 	movl   $0x8058120,(%esp)
 80489a5:	e8 17 fc ff ff       	call   80485c1 <set_intr>
 80489aa:	b8 43 94 04 08       	mov    $0x8049443,%eax
 80489af:	c7 44 24 0c 00 00 00 	movl   $0x0,0xc(%esp)
 80489b6:	00 
 80489b7:	89 44 24 08          	mov    %eax,0x8(%esp)
 80489bb:	c7 44 24 04 01 00 00 	movl   $0x1,0x4(%esp)
 80489c2:	00 
 80489c3:	c7 04 24 28 81 05 08 	movl   $0x8058128,(%esp)
 80489ca:	e8 f2 fb ff ff       	call   80485c1 <set_intr>
 80489cf:	b8 4f 94 04 08       	mov    $0x804944f,%eax
 80489d4:	c7 44 24 0c 00 00 00 	movl   $0x0,0xc(%esp)
 80489db:	00 
 80489dc:	89 44 24 08          	mov    %eax,0x8(%esp)
 80489e0:	c7 44 24 04 01 00 00 	movl   $0x1,0x4(%esp)
 80489e7:	00 
 80489e8:	c7 04 24 90 81 05 08 	movl   $0x8058190,(%esp)
 80489ef:	e8 cd fb ff ff       	call   80485c1 <set_intr>
 80489f4:	c7 44 24 04 00 08 00 	movl   $0x800,0x4(%esp)
 80489fb:	00 
 80489fc:	c7 04 24 20 80 05 08 	movl   $0x8058020,(%esp)
 8048a03:	e8 b6 fc ff ff       	call   80486be <save_idt>
 8048a08:	c9                   	leave  
 8048a09:	c3                   	ret    

08048a0a <out_byte>:
 8048a0a:	55                   	push   %ebp
 8048a0b:	89 e5                	mov    %esp,%ebp
 8048a0d:	83 ec 08             	sub    $0x8,%esp
 8048a10:	8b 55 08             	mov    0x8(%ebp),%edx
 8048a13:	8b 45 0c             	mov    0xc(%ebp),%eax
 8048a16:	66 89 55 fc          	mov    %dx,-0x4(%ebp)
 8048a1a:	88 45 f8             	mov    %al,-0x8(%ebp)
 8048a1d:	0f b7 55 fc          	movzwl -0x4(%ebp),%edx
 8048a21:	0f b6 45 f8          	movzbl -0x8(%ebp),%eax
 8048a25:	ee                   	out    %al,(%dx)
 8048a26:	c9                   	leave  
 8048a27:	c3                   	ret    

08048a28 <init_intr>:
 8048a28:	55                   	push   %ebp
 8048a29:	89 e5                	mov    %esp,%ebp
 8048a2b:	83 ec 08             	sub    $0x8,%esp
 8048a2e:	c7 44 24 04 ff ff ff 	movl   $0xffffffff,0x4(%esp)
 8048a35:	ff 
 8048a36:	c7 04 24 21 00 00 00 	movl   $0x21,(%esp)
 8048a3d:	e8 c8 ff ff ff       	call   8048a0a <out_byte>
 8048a42:	c7 44 24 04 ff ff ff 	movl   $0xffffffff,0x4(%esp)
 8048a49:	ff 
 8048a4a:	c7 04 24 a1 00 00 00 	movl   $0xa1,(%esp)
 8048a51:	e8 b4 ff ff ff       	call   8048a0a <out_byte>
 8048a56:	c7 44 24 04 11 00 00 	movl   $0x11,0x4(%esp)
 8048a5d:	00 
 8048a5e:	c7 04 24 20 00 00 00 	movl   $0x20,(%esp)
 8048a65:	e8 a0 ff ff ff       	call   8048a0a <out_byte>
 8048a6a:	c7 44 24 04 20 00 00 	movl   $0x20,0x4(%esp)
 8048a71:	00 
 8048a72:	c7 04 24 21 00 00 00 	movl   $0x21,(%esp)
 8048a79:	e8 8c ff ff ff       	call   8048a0a <out_byte>
 8048a7e:	c7 44 24 04 04 00 00 	movl   $0x4,0x4(%esp)
 8048a85:	00 
 8048a86:	c7 04 24 21 00 00 00 	movl   $0x21,(%esp)
 8048a8d:	e8 78 ff ff ff       	call   8048a0a <out_byte>
 8048a92:	c7 44 24 04 03 00 00 	movl   $0x3,0x4(%esp)
 8048a99:	00 
 8048a9a:	c7 04 24 21 00 00 00 	movl   $0x21,(%esp)
 8048aa1:	e8 64 ff ff ff       	call   8048a0a <out_byte>
 8048aa6:	c7 44 24 04 11 00 00 	movl   $0x11,0x4(%esp)
 8048aad:	00 
 8048aae:	c7 04 24 a0 00 00 00 	movl   $0xa0,(%esp)
 8048ab5:	e8 50 ff ff ff       	call   8048a0a <out_byte>
 8048aba:	c7 44 24 04 28 00 00 	movl   $0x28,0x4(%esp)
 8048ac1:	00 
 8048ac2:	c7 04 24 a1 00 00 00 	movl   $0xa1,(%esp)
 8048ac9:	e8 3c ff ff ff       	call   8048a0a <out_byte>
 8048ace:	c7 44 24 04 02 00 00 	movl   $0x2,0x4(%esp)
 8048ad5:	00 
 8048ad6:	c7 04 24 a1 00 00 00 	movl   $0xa1,(%esp)
 8048add:	e8 28 ff ff ff       	call   8048a0a <out_byte>
 8048ae2:	c7 44 24 04 03 00 00 	movl   $0x3,0x4(%esp)
 8048ae9:	00 
 8048aea:	c7 04 24 a1 00 00 00 	movl   $0xa1,(%esp)
 8048af1:	e8 14 ff ff ff       	call   8048a0a <out_byte>
 8048af6:	c7 44 24 04 68 00 00 	movl   $0x68,0x4(%esp)
 8048afd:	00 
 8048afe:	c7 04 24 20 00 00 00 	movl   $0x20,(%esp)
 8048b05:	e8 00 ff ff ff       	call   8048a0a <out_byte>
 8048b0a:	c7 44 24 04 0a 00 00 	movl   $0xa,0x4(%esp)
 8048b11:	00 
 8048b12:	c7 04 24 20 00 00 00 	movl   $0x20,(%esp)
 8048b19:	e8 ec fe ff ff       	call   8048a0a <out_byte>
 8048b1e:	c7 44 24 04 68 00 00 	movl   $0x68,0x4(%esp)
 8048b25:	00 
 8048b26:	c7 04 24 a0 00 00 00 	movl   $0xa0,(%esp)
 8048b2d:	e8 d8 fe ff ff       	call   8048a0a <out_byte>
 8048b32:	c7 44 24 04 0a 00 00 	movl   $0xa,0x4(%esp)
 8048b39:	00 
 8048b3a:	c7 04 24 a0 00 00 00 	movl   $0xa0,(%esp)
 8048b41:	e8 c4 fe ff ff       	call   8048a0a <out_byte>
 8048b46:	c9                   	leave  
 8048b47:	c3                   	ret    

08048b48 <_kaddr>:
 8048b48:	55                   	push   %ebp
 8048b49:	89 e5                	mov    %esp,%ebp
 8048b4b:	83 ec 18             	sub    $0x18,%esp
 8048b4e:	8b 45 10             	mov    0x10(%ebp),%eax
 8048b51:	c1 e8 0c             	shr    $0xc,%eax
 8048b54:	3d ff 7f 00 00       	cmp    $0x7fff,%eax
 8048b59:	76 13                	jbe    8048b6e <_kaddr+0x26>
 8048b5b:	8b 45 10             	mov    0x10(%ebp),%eax
 8048b5e:	89 44 24 04          	mov    %eax,0x4(%esp)
 8048b62:	c7 04 24 54 a6 04 08 	movl   $0x804a654,(%esp)
 8048b69:	e8 88 f5 ff ff       	call   80480f6 <printk>
 8048b6e:	8b 45 10             	mov    0x10(%ebp),%eax
 8048b71:	2d 00 00 00 40       	sub    $0x40000000,%eax
 8048b76:	c9                   	leave  
 8048b77:	c3                   	ret    

08048b78 <page2pa>:
 8048b78:	55                   	push   %ebp
 8048b79:	89 e5                	mov    %esp,%ebp
 8048b7b:	8b 55 08             	mov    0x8(%ebp),%edx
 8048b7e:	b8 40 88 05 08       	mov    $0x8058840,%eax
 8048b83:	29 c2                	sub    %eax,%edx
 8048b85:	89 d0                	mov    %edx,%eax
 8048b87:	c1 f8 03             	sar    $0x3,%eax
 8048b8a:	c1 e0 0c             	shl    $0xc,%eax
 8048b8d:	5d                   	pop    %ebp
 8048b8e:	c3                   	ret    

08048b8f <pa2page>:
 8048b8f:	55                   	push   %ebp
 8048b90:	89 e5                	mov    %esp,%ebp
 8048b92:	83 ec 18             	sub    $0x18,%esp
 8048b95:	8b 45 08             	mov    0x8(%ebp),%eax
 8048b98:	c1 e8 0c             	shr    $0xc,%eax
 8048b9b:	3d ff 7f 00 00       	cmp    $0x7fff,%eax
 8048ba0:	76 0c                	jbe    8048bae <pa2page+0x1f>
 8048ba2:	c7 04 24 78 a6 04 08 	movl   $0x804a678,(%esp)
 8048ba9:	e8 48 f5 ff ff       	call   80480f6 <printk>
 8048bae:	8b 45 08             	mov    0x8(%ebp),%eax
 8048bb1:	c1 e8 0c             	shr    $0xc,%eax
 8048bb4:	c1 e0 03             	shl    $0x3,%eax
 8048bb7:	05 40 88 05 08       	add    $0x8058840,%eax
 8048bbc:	c9                   	leave  
 8048bbd:	c3                   	ret    

08048bbe <page2kva>:
 8048bbe:	55                   	push   %ebp
 8048bbf:	89 e5                	mov    %esp,%ebp
 8048bc1:	83 ec 18             	sub    $0x18,%esp
 8048bc4:	8b 45 08             	mov    0x8(%ebp),%eax
 8048bc7:	89 04 24             	mov    %eax,(%esp)
 8048bca:	e8 a9 ff ff ff       	call   8048b78 <page2pa>
 8048bcf:	89 44 24 08          	mov    %eax,0x8(%esp)
 8048bd3:	c7 44 24 04 51 00 00 	movl   $0x51,0x4(%esp)
 8048bda:	00 
 8048bdb:	c7 04 24 97 a6 04 08 	movl   $0x804a697,(%esp)
 8048be2:	e8 61 ff ff ff       	call   8048b48 <_kaddr>
 8048be7:	c9                   	leave  
 8048be8:	c3                   	ret    

08048be9 <empty_list>:
 8048be9:	55                   	push   %ebp
 8048bea:	89 e5                	mov    %esp,%ebp
 8048bec:	83 7d 08 00          	cmpl   $0x0,0x8(%ebp)
 8048bf0:	75 07                	jne    8048bf9 <empty_list+0x10>
 8048bf2:	b8 01 00 00 00       	mov    $0x1,%eax
 8048bf7:	eb 05                	jmp    8048bfe <empty_list+0x15>
 8048bf9:	b8 00 00 00 00       	mov    $0x0,%eax
 8048bfe:	5d                   	pop    %ebp
 8048bff:	c3                   	ret    

08048c00 <page_init>:
 8048c00:	55                   	push   %ebp
 8048c01:	89 e5                	mov    %esp,%ebp
 8048c03:	83 ec 10             	sub    $0x10,%esp
 8048c06:	c7 45 fc ff 7f 00 00 	movl   $0x7fff,-0x4(%ebp)
 8048c0d:	eb 31                	jmp    8048c40 <page_init+0x40>
 8048c0f:	8b 45 fc             	mov    -0x4(%ebp),%eax
 8048c12:	66 c7 04 c5 44 88 05 	movw   $0x0,0x8058844(,%eax,8)
 8048c19:	08 00 00 
 8048c1c:	8b 15 20 88 05 08    	mov    0x8058820,%edx
 8048c22:	8b 45 fc             	mov    -0x4(%ebp),%eax
 8048c25:	89 14 c5 40 88 05 08 	mov    %edx,0x8058840(,%eax,8)
 8048c2c:	8b 45 fc             	mov    -0x4(%ebp),%eax
 8048c2f:	c1 e0 03             	shl    $0x3,%eax
 8048c32:	05 40 88 05 08       	add    $0x8058840,%eax
 8048c37:	a3 20 88 05 08       	mov    %eax,0x8058820
 8048c3c:	83 6d fc 01          	subl   $0x1,-0x4(%ebp)
 8048c40:	81 7d fc c9 01 00 00 	cmpl   $0x1c9,-0x4(%ebp)
 8048c47:	77 c6                	ja     8048c0f <page_init+0xf>
 8048c49:	90                   	nop
 8048c4a:	c9                   	leave  
 8048c4b:	c3                   	ret    

08048c4c <page_alloc>:
 8048c4c:	55                   	push   %ebp
 8048c4d:	89 e5                	mov    %esp,%ebp
 8048c4f:	83 ec 28             	sub    $0x28,%esp
 8048c52:	a1 20 88 05 08       	mov    0x8058820,%eax
 8048c57:	85 c0                	test   %eax,%eax
 8048c59:	75 07                	jne    8048c62 <page_alloc+0x16>
 8048c5b:	b8 00 00 00 00       	mov    $0x0,%eax
 8048c60:	eb 44                	jmp    8048ca6 <page_alloc+0x5a>
 8048c62:	a1 20 88 05 08       	mov    0x8058820,%eax
 8048c67:	89 45 f4             	mov    %eax,-0xc(%ebp)
 8048c6a:	a1 20 88 05 08       	mov    0x8058820,%eax
 8048c6f:	8b 00                	mov    (%eax),%eax
 8048c71:	a3 20 88 05 08       	mov    %eax,0x8058820
 8048c76:	8b 45 08             	mov    0x8(%ebp),%eax
 8048c79:	83 e0 01             	and    $0x1,%eax
 8048c7c:	85 c0                	test   %eax,%eax
 8048c7e:	74 23                	je     8048ca3 <page_alloc+0x57>
 8048c80:	8b 45 f4             	mov    -0xc(%ebp),%eax
 8048c83:	89 04 24             	mov    %eax,(%esp)
 8048c86:	e8 33 ff ff ff       	call   8048bbe <page2kva>
 8048c8b:	c7 44 24 08 00 10 00 	movl   $0x1000,0x8(%esp)
 8048c92:	00 
 8048c93:	c7 44 24 04 00 00 00 	movl   $0x0,0x4(%esp)
 8048c9a:	00 
 8048c9b:	89 04 24             	mov    %eax,(%esp)
 8048c9e:	e8 c3 11 00 00       	call   8049e66 <memset>
 8048ca3:	8b 45 f4             	mov    -0xc(%ebp),%eax
 8048ca6:	c9                   	leave  
 8048ca7:	c3                   	ret    

08048ca8 <page_free>:
 8048ca8:	55                   	push   %ebp
 8048ca9:	89 e5                	mov    %esp,%ebp
 8048cab:	8b 15 20 88 05 08    	mov    0x8058820,%edx
 8048cb1:	8b 45 08             	mov    0x8(%ebp),%eax
 8048cb4:	89 10                	mov    %edx,(%eax)
 8048cb6:	8b 45 08             	mov    0x8(%ebp),%eax
 8048cb9:	a3 20 88 05 08       	mov    %eax,0x8058820
 8048cbe:	90                   	nop
 8048cbf:	5d                   	pop    %ebp
 8048cc0:	c3                   	ret    

08048cc1 <page_decref>:
 8048cc1:	55                   	push   %ebp
 8048cc2:	89 e5                	mov    %esp,%ebp
 8048cc4:	83 ec 04             	sub    $0x4,%esp
 8048cc7:	8b 45 08             	mov    0x8(%ebp),%eax
 8048cca:	0f b7 40 04          	movzwl 0x4(%eax),%eax
 8048cce:	8d 50 ff             	lea    -0x1(%eax),%edx
 8048cd1:	8b 45 08             	mov    0x8(%ebp),%eax
 8048cd4:	66 89 50 04          	mov    %dx,0x4(%eax)
 8048cd8:	8b 45 08             	mov    0x8(%ebp),%eax
 8048cdb:	0f b7 40 04          	movzwl 0x4(%eax),%eax
 8048cdf:	66 85 c0             	test   %ax,%ax
 8048ce2:	75 0b                	jne    8048cef <page_decref+0x2e>
 8048ce4:	8b 45 08             	mov    0x8(%ebp),%eax
 8048ce7:	89 04 24             	mov    %eax,(%esp)
 8048cea:	e8 b9 ff ff ff       	call   8048ca8 <page_free>
 8048cef:	c9                   	leave  
 8048cf0:	c3                   	ret    

08048cf1 <pgdir_walk>:
 8048cf1:	55                   	push   %ebp
 8048cf2:	89 e5                	mov    %esp,%ebp
 8048cf4:	83 ec 28             	sub    $0x28,%esp
 8048cf7:	8b 45 0c             	mov    0xc(%ebp),%eax
 8048cfa:	c1 e8 16             	shr    $0x16,%eax
 8048cfd:	8d 14 85 00 00 00 00 	lea    0x0(,%eax,4),%edx
 8048d04:	8b 45 08             	mov    0x8(%ebp),%eax
 8048d07:	01 d0                	add    %edx,%eax
 8048d09:	8b 00                	mov    (%eax),%eax
 8048d0b:	85 c0                	test   %eax,%eax
 8048d0d:	75 78                	jne    8048d87 <pgdir_walk+0x96>
 8048d0f:	83 7d 10 00          	cmpl   $0x0,0x10(%ebp)
 8048d13:	75 0a                	jne    8048d1f <pgdir_walk+0x2e>
 8048d15:	b8 00 00 00 00       	mov    $0x0,%eax
 8048d1a:	e9 a6 00 00 00       	jmp    8048dc5 <pgdir_walk+0xd4>
 8048d1f:	c7 04 24 01 00 00 00 	movl   $0x1,(%esp)
 8048d26:	e8 21 ff ff ff       	call   8048c4c <page_alloc>
 8048d2b:	89 45 f0             	mov    %eax,-0x10(%ebp)
 8048d2e:	83 7d f0 00          	cmpl   $0x0,-0x10(%ebp)
 8048d32:	75 0a                	jne    8048d3e <pgdir_walk+0x4d>
 8048d34:	b8 00 00 00 00       	mov    $0x0,%eax
 8048d39:	e9 87 00 00 00       	jmp    8048dc5 <pgdir_walk+0xd4>
 8048d3e:	8b 45 f0             	mov    -0x10(%ebp),%eax
 8048d41:	0f b7 40 04          	movzwl 0x4(%eax),%eax
 8048d45:	8d 50 01             	lea    0x1(%eax),%edx
 8048d48:	8b 45 f0             	mov    -0x10(%ebp),%eax
 8048d4b:	66 89 50 04          	mov    %dx,0x4(%eax)
 8048d4f:	8b 45 f0             	mov    -0x10(%ebp),%eax
 8048d52:	89 04 24             	mov    %eax,(%esp)
 8048d55:	e8 1e fe ff ff       	call   8048b78 <page2pa>
 8048d5a:	89 45 ec             	mov    %eax,-0x14(%ebp)
 8048d5d:	8b 45 0c             	mov    0xc(%ebp),%eax
 8048d60:	c1 e8 16             	shr    $0x16,%eax
 8048d63:	8d 14 85 00 00 00 00 	lea    0x0(,%eax,4),%edx
 8048d6a:	8b 45 08             	mov    0x8(%ebp),%eax
 8048d6d:	01 d0                	add    %edx,%eax
 8048d6f:	8b 55 ec             	mov    -0x14(%ebp),%edx
 8048d72:	83 ca 07             	or     $0x7,%edx
 8048d75:	89 10                	mov    %edx,(%eax)
 8048d77:	8b 45 f0             	mov    -0x10(%ebp),%eax
 8048d7a:	89 04 24             	mov    %eax,(%esp)
 8048d7d:	e8 3c fe ff ff       	call   8048bbe <page2kva>
 8048d82:	89 45 f4             	mov    %eax,-0xc(%ebp)
 8048d85:	eb 27                	jmp    8048dae <pgdir_walk+0xbd>
 8048d87:	8b 45 0c             	mov    0xc(%ebp),%eax
 8048d8a:	c1 e8 16             	shr    $0x16,%eax
 8048d8d:	8d 14 85 00 00 00 00 	lea    0x0(,%eax,4),%edx
 8048d94:	8b 45 08             	mov    0x8(%ebp),%eax
 8048d97:	01 d0                	add    %edx,%eax
 8048d99:	8b 00                	mov    (%eax),%eax
 8048d9b:	89 04 24             	mov    %eax,(%esp)
 8048d9e:	e8 ec fd ff ff       	call   8048b8f <pa2page>
 8048da3:	89 04 24             	mov    %eax,(%esp)
 8048da6:	e8 13 fe ff ff       	call   8048bbe <page2kva>
 8048dab:	89 45 f4             	mov    %eax,-0xc(%ebp)
 8048dae:	8b 45 0c             	mov    0xc(%ebp),%eax
 8048db1:	c1 e8 0c             	shr    $0xc,%eax
 8048db4:	25 ff 03 00 00       	and    $0x3ff,%eax
 8048db9:	8d 14 85 00 00 00 00 	lea    0x0(,%eax,4),%edx
 8048dc0:	8b 45 f4             	mov    -0xc(%ebp),%eax
 8048dc3:	01 d0                	add    %edx,%eax
 8048dc5:	c9                   	leave  
 8048dc6:	c3                   	ret    

08048dc7 <boot_map_region>:
 8048dc7:	55                   	push   %ebp
 8048dc8:	89 e5                	mov    %esp,%ebp
 8048dca:	83 ec 28             	sub    $0x28,%esp
 8048dcd:	c7 45 f4 00 00 00 00 	movl   $0x0,-0xc(%ebp)
 8048dd4:	eb 44                	jmp    8048e1a <boot_map_region+0x53>
 8048dd6:	8b 45 0c             	mov    0xc(%ebp),%eax
 8048dd9:	c7 44 24 08 01 00 00 	movl   $0x1,0x8(%esp)
 8048de0:	00 
 8048de1:	89 44 24 04          	mov    %eax,0x4(%esp)
 8048de5:	8b 45 08             	mov    0x8(%ebp),%eax
 8048de8:	89 04 24             	mov    %eax,(%esp)
 8048deb:	e8 01 ff ff ff       	call   8048cf1 <pgdir_walk>
 8048df0:	89 45 f0             	mov    %eax,-0x10(%ebp)
 8048df3:	8b 45 f4             	mov    -0xc(%ebp),%eax
 8048df6:	c1 e0 0c             	shl    $0xc,%eax
 8048df9:	89 c2                	mov    %eax,%edx
 8048dfb:	8b 45 14             	mov    0x14(%ebp),%eax
 8048dfe:	01 c2                	add    %eax,%edx
 8048e00:	8b 45 18             	mov    0x18(%ebp),%eax
 8048e03:	09 d0                	or     %edx,%eax
 8048e05:	83 c8 01             	or     $0x1,%eax
 8048e08:	89 c2                	mov    %eax,%edx
 8048e0a:	8b 45 f0             	mov    -0x10(%ebp),%eax
 8048e0d:	89 10                	mov    %edx,(%eax)
 8048e0f:	83 45 f4 01          	addl   $0x1,-0xc(%ebp)
 8048e13:	81 45 0c 00 10 00 00 	addl   $0x1000,0xc(%ebp)
 8048e1a:	8b 45 f4             	mov    -0xc(%ebp),%eax
 8048e1d:	8b 55 10             	mov    0x10(%ebp),%edx
 8048e20:	c1 ea 0c             	shr    $0xc,%edx
 8048e23:	39 d0                	cmp    %edx,%eax
 8048e25:	72 af                	jb     8048dd6 <boot_map_region+0xf>
 8048e27:	c9                   	leave  
 8048e28:	c3                   	ret    

08048e29 <page_insert>:
 8048e29:	55                   	push   %ebp
 8048e2a:	89 e5                	mov    %esp,%ebp
 8048e2c:	83 ec 28             	sub    $0x28,%esp
 8048e2f:	c7 44 24 08 00 00 00 	movl   $0x0,0x8(%esp)
 8048e36:	00 
 8048e37:	8b 45 10             	mov    0x10(%ebp),%eax
 8048e3a:	89 44 24 04          	mov    %eax,0x4(%esp)
 8048e3e:	8b 45 08             	mov    0x8(%ebp),%eax
 8048e41:	89 04 24             	mov    %eax,(%esp)
 8048e44:	e8 bd 00 00 00       	call   8048f06 <page_lookup>
 8048e49:	89 45 f4             	mov    %eax,-0xc(%ebp)
 8048e4c:	8b 45 f4             	mov    -0xc(%ebp),%eax
 8048e4f:	3b 45 0c             	cmp    0xc(%ebp),%eax
 8048e52:	75 3e                	jne    8048e92 <page_insert+0x69>
 8048e54:	c7 44 24 08 01 00 00 	movl   $0x1,0x8(%esp)
 8048e5b:	00 
 8048e5c:	8b 45 10             	mov    0x10(%ebp),%eax
 8048e5f:	89 44 24 04          	mov    %eax,0x4(%esp)
 8048e63:	8b 45 08             	mov    0x8(%ebp),%eax
 8048e66:	89 04 24             	mov    %eax,(%esp)
 8048e69:	e8 83 fe ff ff       	call   8048cf1 <pgdir_walk>
 8048e6e:	89 45 f0             	mov    %eax,-0x10(%ebp)
 8048e71:	8b 45 0c             	mov    0xc(%ebp),%eax
 8048e74:	89 04 24             	mov    %eax,(%esp)
 8048e77:	e8 fc fc ff ff       	call   8048b78 <page2pa>
 8048e7c:	8b 55 14             	mov    0x14(%ebp),%edx
 8048e7f:	09 d0                	or     %edx,%eax
 8048e81:	83 c8 01             	or     $0x1,%eax
 8048e84:	89 c2                	mov    %eax,%edx
 8048e86:	8b 45 f0             	mov    -0x10(%ebp),%eax
 8048e89:	89 10                	mov    %edx,(%eax)
 8048e8b:	b8 00 00 00 00       	mov    $0x0,%eax
 8048e90:	eb 72                	jmp    8048f04 <page_insert+0xdb>
 8048e92:	83 7d f4 00          	cmpl   $0x0,-0xc(%ebp)
 8048e96:	74 12                	je     8048eaa <page_insert+0x81>
 8048e98:	8b 45 10             	mov    0x10(%ebp),%eax
 8048e9b:	89 44 24 04          	mov    %eax,0x4(%esp)
 8048e9f:	8b 45 08             	mov    0x8(%ebp),%eax
 8048ea2:	89 04 24             	mov    %eax,(%esp)
 8048ea5:	e8 bf 00 00 00       	call   8048f69 <page_remove>
 8048eaa:	c7 44 24 08 01 00 00 	movl   $0x1,0x8(%esp)
 8048eb1:	00 
 8048eb2:	8b 45 10             	mov    0x10(%ebp),%eax
 8048eb5:	89 44 24 04          	mov    %eax,0x4(%esp)
 8048eb9:	8b 45 08             	mov    0x8(%ebp),%eax
 8048ebc:	89 04 24             	mov    %eax,(%esp)
 8048ebf:	e8 2d fe ff ff       	call   8048cf1 <pgdir_walk>
 8048ec4:	89 45 ec             	mov    %eax,-0x14(%ebp)
 8048ec7:	83 7d ec 00          	cmpl   $0x0,-0x14(%ebp)
 8048ecb:	75 07                	jne    8048ed4 <page_insert+0xab>
 8048ecd:	b8 fc ff ff ff       	mov    $0xfffffffc,%eax
 8048ed2:	eb 30                	jmp    8048f04 <page_insert+0xdb>
 8048ed4:	8b 45 0c             	mov    0xc(%ebp),%eax
 8048ed7:	89 04 24             	mov    %eax,(%esp)
 8048eda:	e8 99 fc ff ff       	call   8048b78 <page2pa>
 8048edf:	8b 55 14             	mov    0x14(%ebp),%edx
 8048ee2:	09 d0                	or     %edx,%eax
 8048ee4:	83 c8 01             	or     $0x1,%eax
 8048ee7:	89 c2                	mov    %eax,%edx
 8048ee9:	8b 45 ec             	mov    -0x14(%ebp),%eax
 8048eec:	89 10                	mov    %edx,(%eax)
 8048eee:	8b 45 0c             	mov    0xc(%ebp),%eax
 8048ef1:	0f b7 40 04          	movzwl 0x4(%eax),%eax
 8048ef5:	8d 50 01             	lea    0x1(%eax),%edx
 8048ef8:	8b 45 0c             	mov    0xc(%ebp),%eax
 8048efb:	66 89 50 04          	mov    %dx,0x4(%eax)
 8048eff:	b8 00 00 00 00       	mov    $0x0,%eax
 8048f04:	c9                   	leave  
 8048f05:	c3                   	ret    

08048f06 <page_lookup>:
 8048f06:	55                   	push   %ebp
 8048f07:	89 e5                	mov    %esp,%ebp
 8048f09:	83 ec 28             	sub    $0x28,%esp
 8048f0c:	c7 44 24 08 00 00 00 	movl   $0x0,0x8(%esp)
 8048f13:	00 
 8048f14:	8b 45 0c             	mov    0xc(%ebp),%eax
 8048f17:	89 44 24 04          	mov    %eax,0x4(%esp)
 8048f1b:	8b 45 08             	mov    0x8(%ebp),%eax
 8048f1e:	89 04 24             	mov    %eax,(%esp)
 8048f21:	e8 cb fd ff ff       	call   8048cf1 <pgdir_walk>
 8048f26:	89 45 f4             	mov    %eax,-0xc(%ebp)
 8048f29:	83 7d f4 00          	cmpl   $0x0,-0xc(%ebp)
 8048f2d:	75 07                	jne    8048f36 <page_lookup+0x30>
 8048f2f:	b8 00 00 00 00       	mov    $0x0,%eax
 8048f34:	eb 31                	jmp    8048f67 <page_lookup+0x61>
 8048f36:	83 7d 10 00          	cmpl   $0x0,0x10(%ebp)
 8048f3a:	74 08                	je     8048f44 <page_lookup+0x3e>
 8048f3c:	8b 45 10             	mov    0x10(%ebp),%eax
 8048f3f:	8b 55 f4             	mov    -0xc(%ebp),%edx
 8048f42:	89 10                	mov    %edx,(%eax)
 8048f44:	8b 45 f4             	mov    -0xc(%ebp),%eax
 8048f47:	8b 00                	mov    (%eax),%eax
 8048f49:	85 c0                	test   %eax,%eax
 8048f4b:	75 07                	jne    8048f54 <page_lookup+0x4e>
 8048f4d:	b8 00 00 00 00       	mov    $0x0,%eax
 8048f52:	eb 13                	jmp    8048f67 <page_lookup+0x61>
 8048f54:	8b 45 f4             	mov    -0xc(%ebp),%eax
 8048f57:	8b 00                	mov    (%eax),%eax
 8048f59:	89 04 24             	mov    %eax,(%esp)
 8048f5c:	e8 2e fc ff ff       	call   8048b8f <pa2page>
 8048f61:	89 45 f0             	mov    %eax,-0x10(%ebp)
 8048f64:	8b 45 f0             	mov    -0x10(%ebp),%eax
 8048f67:	c9                   	leave  
 8048f68:	c3                   	ret    

08048f69 <page_remove>:
 8048f69:	55                   	push   %ebp
 8048f6a:	89 e5                	mov    %esp,%ebp
 8048f6c:	83 ec 28             	sub    $0x28,%esp
 8048f6f:	c7 45 f0 00 00 00 00 	movl   $0x0,-0x10(%ebp)
 8048f76:	8d 45 f0             	lea    -0x10(%ebp),%eax
 8048f79:	89 44 24 08          	mov    %eax,0x8(%esp)
 8048f7d:	8d 45 0c             	lea    0xc(%ebp),%eax
 8048f80:	89 44 24 04          	mov    %eax,0x4(%esp)
 8048f84:	8b 45 08             	mov    0x8(%ebp),%eax
 8048f87:	89 04 24             	mov    %eax,(%esp)
 8048f8a:	e8 77 ff ff ff       	call   8048f06 <page_lookup>
 8048f8f:	89 45 f4             	mov    %eax,-0xc(%ebp)
 8048f92:	8b 45 f4             	mov    -0xc(%ebp),%eax
 8048f95:	0f b7 40 04          	movzwl 0x4(%eax),%eax
 8048f99:	66 85 c0             	test   %ax,%ax
 8048f9c:	74 0b                	je     8048fa9 <page_remove+0x40>
 8048f9e:	8b 45 f4             	mov    -0xc(%ebp),%eax
 8048fa1:	89 04 24             	mov    %eax,(%esp)
 8048fa4:	e8 18 fd ff ff       	call   8048cc1 <page_decref>
 8048fa9:	8b 45 f0             	mov    -0x10(%ebp),%eax
 8048fac:	c7 00 00 00 00 00    	movl   $0x0,(%eax)
 8048fb2:	8b 45 0c             	mov    0xc(%ebp),%eax
 8048fb5:	89 44 24 04          	mov    %eax,0x4(%esp)
 8048fb9:	8b 45 08             	mov    0x8(%ebp),%eax
 8048fbc:	89 04 24             	mov    %eax,(%esp)
 8048fbf:	e8 02 00 00 00       	call   8048fc6 <tlb_invalidate>
 8048fc4:	c9                   	leave  
 8048fc5:	c3                   	ret    

08048fc6 <tlb_invalidate>:
 8048fc6:	55                   	push   %ebp
 8048fc7:	89 e5                	mov    %esp,%ebp
 8048fc9:	83 ec 10             	sub    $0x10,%esp
 8048fcc:	8b 45 0c             	mov    0xc(%ebp),%eax
 8048fcf:	89 45 fc             	mov    %eax,-0x4(%ebp)
 8048fd2:	8b 45 fc             	mov    -0x4(%ebp),%eax
 8048fd5:	0f 01 38             	invlpg (%eax)
 8048fd8:	c9                   	leave  
 8048fd9:	c3                   	ret    

08048fda <init_mem>:
 8048fda:	55                   	push   %ebp
 8048fdb:	89 e5                	mov    %esp,%ebp
 8048fdd:	83 ec 28             	sub    $0x28,%esp
 8048fe0:	c7 44 24 10 02 00 00 	movl   $0x2,0x10(%esp)
 8048fe7:	00 
 8048fe8:	c7 44 24 0c 00 00 00 	movl   $0x0,0xc(%esp)
 8048fef:	00 
 8048ff0:	c7 44 24 08 00 00 00 	movl   $0x8000000,0x8(%esp)
 8048ff7:	08 
 8048ff8:	c7 44 24 04 00 00 00 	movl   $0xc0000000,0x4(%esp)
 8048fff:	c0 
 8049000:	c7 04 24 00 f0 04 08 	movl   $0x804f000,(%esp)
 8049007:	e8 bb fd ff ff       	call   8048dc7 <boot_map_region>
 804900c:	90                   	nop
 804900d:	c9                   	leave  
 804900e:	c3                   	ret    

0804900f <in_byte>:
 804900f:	55                   	push   %ebp
 8049010:	89 e5                	mov    %esp,%ebp
 8049012:	83 ec 14             	sub    $0x14,%esp
 8049015:	8b 45 08             	mov    0x8(%ebp),%eax
 8049018:	66 89 45 ec          	mov    %ax,-0x14(%ebp)
 804901c:	0f b7 45 ec          	movzwl -0x14(%ebp),%eax
 8049020:	89 c2                	mov    %eax,%edx
 8049022:	ec                   	in     (%dx),%al
 8049023:	88 45 ff             	mov    %al,-0x1(%ebp)
 8049026:	0f b6 45 ff          	movzbl -0x1(%ebp),%eax
 804902a:	c9                   	leave  
 804902b:	c3                   	ret    

0804902c <in_long>:
 804902c:	55                   	push   %ebp
 804902d:	89 e5                	mov    %esp,%ebp
 804902f:	83 ec 14             	sub    $0x14,%esp
 8049032:	8b 45 08             	mov    0x8(%ebp),%eax
 8049035:	66 89 45 ec          	mov    %ax,-0x14(%ebp)
 8049039:	0f b7 45 ec          	movzwl -0x14(%ebp),%eax
 804903d:	89 c2                	mov    %eax,%edx
 804903f:	ed                   	in     (%dx),%eax
 8049040:	89 45 fc             	mov    %eax,-0x4(%ebp)
 8049043:	8b 45 fc             	mov    -0x4(%ebp),%eax
 8049046:	c9                   	leave  
 8049047:	c3                   	ret    

08049048 <out_byte>:
 8049048:	55                   	push   %ebp
 8049049:	89 e5                	mov    %esp,%ebp
 804904b:	83 ec 08             	sub    $0x8,%esp
 804904e:	8b 55 08             	mov    0x8(%ebp),%edx
 8049051:	8b 45 0c             	mov    0xc(%ebp),%eax
 8049054:	66 89 55 fc          	mov    %dx,-0x4(%ebp)
 8049058:	88 45 f8             	mov    %al,-0x8(%ebp)
 804905b:	0f b7 55 fc          	movzwl -0x4(%ebp),%edx
 804905f:	0f b6 45 f8          	movzbl -0x8(%ebp),%eax
 8049063:	ee                   	out    %al,(%dx)
 8049064:	c9                   	leave  
 8049065:	c3                   	ret    

08049066 <_kaddr>:
 8049066:	55                   	push   %ebp
 8049067:	89 e5                	mov    %esp,%ebp
 8049069:	83 ec 18             	sub    $0x18,%esp
 804906c:	8b 45 10             	mov    0x10(%ebp),%eax
 804906f:	c1 e8 0c             	shr    $0xc,%eax
 8049072:	3d ff 7f 00 00       	cmp    $0x7fff,%eax
 8049077:	76 13                	jbe    804908c <_kaddr+0x26>
 8049079:	8b 45 10             	mov    0x10(%ebp),%eax
 804907c:	89 44 24 04          	mov    %eax,0x4(%esp)
 8049080:	c7 04 24 a8 a6 04 08 	movl   $0x804a6a8,(%esp)
 8049087:	e8 6a f0 ff ff       	call   80480f6 <printk>
 804908c:	8b 45 10             	mov    0x10(%ebp),%eax
 804908f:	2d 00 00 00 40       	sub    $0x40000000,%eax
 8049094:	c9                   	leave  
 8049095:	c3                   	ret    

08049096 <page2pa>:
 8049096:	55                   	push   %ebp
 8049097:	89 e5                	mov    %esp,%ebp
 8049099:	8b 55 08             	mov    0x8(%ebp),%edx
 804909c:	b8 40 88 05 08       	mov    $0x8058840,%eax
 80490a1:	29 c2                	sub    %eax,%edx
 80490a3:	89 d0                	mov    %edx,%eax
 80490a5:	c1 f8 03             	sar    $0x3,%eax
 80490a8:	c1 e0 0c             	shl    $0xc,%eax
 80490ab:	5d                   	pop    %ebp
 80490ac:	c3                   	ret    

080490ad <page2kva>:
 80490ad:	55                   	push   %ebp
 80490ae:	89 e5                	mov    %esp,%ebp
 80490b0:	83 ec 18             	sub    $0x18,%esp
 80490b3:	8b 45 08             	mov    0x8(%ebp),%eax
 80490b6:	89 04 24             	mov    %eax,(%esp)
 80490b9:	e8 d8 ff ff ff       	call   8049096 <page2pa>
 80490be:	89 44 24 08          	mov    %eax,0x8(%esp)
 80490c2:	c7 44 24 04 51 00 00 	movl   $0x51,0x4(%esp)
 80490c9:	00 
 80490ca:	c7 04 24 ca a6 04 08 	movl   $0x804a6ca,(%esp)
 80490d1:	e8 90 ff ff ff       	call   8049066 <_kaddr>
 80490d6:	c9                   	leave  
 80490d7:	c3                   	ret    

080490d8 <loader>:
 80490d8:	55                   	push   %ebp
 80490d9:	89 e5                	mov    %esp,%ebp
 80490db:	81 ec 38 10 00 00    	sub    $0x1038,%esp
 80490e1:	c7 45 e8 40 88 09 08 	movl   $0x8098840,-0x18(%ebp)
 80490e8:	c7 44 24 08 00 00 00 	movl   $0x0,0x8(%esp)
 80490ef:	00 
 80490f0:	c7 44 24 04 00 10 00 	movl   $0x1000,0x4(%esp)
 80490f7:	00 
 80490f8:	8b 45 e8             	mov    -0x18(%ebp),%eax
 80490fb:	89 04 24             	mov    %eax,(%esp)
 80490fe:	e8 45 02 00 00       	call   8049348 <readseg>
 8049103:	8b 45 e8             	mov    -0x18(%ebp),%eax
 8049106:	8b 50 1c             	mov    0x1c(%eax),%edx
 8049109:	8b 45 e8             	mov    -0x18(%ebp),%eax
 804910c:	01 d0                	add    %edx,%eax
 804910e:	89 45 f4             	mov    %eax,-0xc(%ebp)
 8049111:	8b 45 e8             	mov    -0x18(%ebp),%eax
 8049114:	0f b7 40 2c          	movzwl 0x2c(%eax),%eax
 8049118:	0f b7 c0             	movzwl %ax,%eax
 804911b:	c1 e0 05             	shl    $0x5,%eax
 804911e:	89 c2                	mov    %eax,%edx
 8049120:	8b 45 f4             	mov    -0xc(%ebp),%eax
 8049123:	01 d0                	add    %edx,%eax
 8049125:	89 45 e4             	mov    %eax,-0x1c(%ebp)
 8049128:	e9 11 01 00 00       	jmp    804923e <loader+0x166>
 804912d:	8b 45 f4             	mov    -0xc(%ebp),%eax
 8049130:	8b 40 08             	mov    0x8(%eax),%eax
 8049133:	89 45 f0             	mov    %eax,-0x10(%ebp)
 8049136:	c7 45 ec 00 00 00 00 	movl   $0x0,-0x14(%ebp)
 804913d:	8b 45 f4             	mov    -0xc(%ebp),%eax
 8049140:	8b 00                	mov    (%eax),%eax
 8049142:	83 f8 01             	cmp    $0x1,%eax
 8049145:	0f 85 ef 00 00 00    	jne    804923a <loader+0x162>
 804914b:	e9 d3 00 00 00       	jmp    8049223 <loader+0x14b>
 8049150:	c7 44 24 08 00 10 00 	movl   $0x1000,0x8(%esp)
 8049157:	00 
 8049158:	c7 44 24 04 00 00 00 	movl   $0x0,0x4(%esp)
 804915f:	00 
 8049160:	8d 85 d8 ef ff ff    	lea    -0x1028(%ebp),%eax
 8049166:	89 04 24             	mov    %eax,(%esp)
 8049169:	e8 f8 0c 00 00       	call   8049e66 <memset>
 804916e:	8b 45 f0             	mov    -0x10(%ebp),%eax
 8049171:	25 ff 0f 00 00       	and    $0xfff,%eax
 8049176:	89 45 e0             	mov    %eax,-0x20(%ebp)
 8049179:	81 65 f0 00 f0 ff ff 	andl   $0xfffff000,-0x10(%ebp)
 8049180:	c7 04 24 01 00 00 00 	movl   $0x1,(%esp)
 8049187:	e8 c0 fa ff ff       	call   8048c4c <page_alloc>
 804918c:	89 45 dc             	mov    %eax,-0x24(%ebp)
 804918f:	8b 45 f0             	mov    -0x10(%ebp),%eax
 8049192:	c7 44 24 0c 06 00 00 	movl   $0x6,0xc(%esp)
 8049199:	00 
 804919a:	89 44 24 08          	mov    %eax,0x8(%esp)
 804919e:	8b 45 dc             	mov    -0x24(%ebp),%eax
 80491a1:	89 44 24 04          	mov    %eax,0x4(%esp)
 80491a5:	8b 45 08             	mov    0x8(%ebp),%eax
 80491a8:	89 04 24             	mov    %eax,(%esp)
 80491ab:	e8 79 fc ff ff       	call   8048e29 <page_insert>
 80491b0:	b8 00 10 00 00       	mov    $0x1000,%eax
 80491b5:	2b 45 e0             	sub    -0x20(%ebp),%eax
 80491b8:	89 c2                	mov    %eax,%edx
 80491ba:	8b 45 f4             	mov    -0xc(%ebp),%eax
 80491bd:	8b 40 14             	mov    0x14(%eax),%eax
 80491c0:	39 c2                	cmp    %eax,%edx
 80491c2:	0f 46 c2             	cmovbe %edx,%eax
 80491c5:	89 45 d8             	mov    %eax,-0x28(%ebp)
 80491c8:	8b 45 f4             	mov    -0xc(%ebp),%eax
 80491cb:	8b 50 04             	mov    0x4(%eax),%edx
 80491ce:	8b 45 ec             	mov    -0x14(%ebp),%eax
 80491d1:	01 d0                	add    %edx,%eax
 80491d3:	8d 8d d8 ef ff ff    	lea    -0x1028(%ebp),%ecx
 80491d9:	8b 55 e0             	mov    -0x20(%ebp),%edx
 80491dc:	01 ca                	add    %ecx,%edx
 80491de:	89 44 24 08          	mov    %eax,0x8(%esp)
 80491e2:	8b 45 d8             	mov    -0x28(%ebp),%eax
 80491e5:	89 44 24 04          	mov    %eax,0x4(%esp)
 80491e9:	89 14 24             	mov    %edx,(%esp)
 80491ec:	e8 57 01 00 00       	call   8049348 <readseg>
 80491f1:	8b 45 dc             	mov    -0x24(%ebp),%eax
 80491f4:	89 04 24             	mov    %eax,(%esp)
 80491f7:	e8 b1 fe ff ff       	call   80490ad <page2kva>
 80491fc:	c7 44 24 08 00 10 00 	movl   $0x1000,0x8(%esp)
 8049203:	00 
 8049204:	8d 95 d8 ef ff ff    	lea    -0x1028(%ebp),%edx
 804920a:	89 54 24 04          	mov    %edx,0x4(%esp)
 804920e:	89 04 24             	mov    %eax,(%esp)
 8049211:	e8 98 0d 00 00       	call   8049fae <memcpy>
 8049216:	81 45 f0 00 10 00 00 	addl   $0x1000,-0x10(%ebp)
 804921d:	8b 45 d8             	mov    -0x28(%ebp),%eax
 8049220:	01 45 ec             	add    %eax,-0x14(%ebp)
 8049223:	8b 45 f4             	mov    -0xc(%ebp),%eax
 8049226:	8b 50 08             	mov    0x8(%eax),%edx
 8049229:	8b 45 f4             	mov    -0xc(%ebp),%eax
 804922c:	8b 40 14             	mov    0x14(%eax),%eax
 804922f:	01 d0                	add    %edx,%eax
 8049231:	3b 45 f0             	cmp    -0x10(%ebp),%eax
 8049234:	0f 87 16 ff ff ff    	ja     8049150 <loader+0x78>
 804923a:	83 45 f4 20          	addl   $0x20,-0xc(%ebp)
 804923e:	8b 45 f4             	mov    -0xc(%ebp),%eax
 8049241:	3b 45 e4             	cmp    -0x1c(%ebp),%eax
 8049244:	0f 82 e3 fe ff ff    	jb     804912d <loader+0x55>
 804924a:	8b 45 e8             	mov    -0x18(%ebp),%eax
 804924d:	8b 40 18             	mov    0x18(%eax),%eax
 8049250:	c9                   	leave  
 8049251:	c3                   	ret    

08049252 <waitdisk>:
 8049252:	55                   	push   %ebp
 8049253:	89 e5                	mov    %esp,%ebp
 8049255:	83 ec 04             	sub    $0x4,%esp
 8049258:	90                   	nop
 8049259:	c7 04 24 f7 01 00 00 	movl   $0x1f7,(%esp)
 8049260:	e8 aa fd ff ff       	call   804900f <in_byte>
 8049265:	0f be c0             	movsbl %al,%eax
 8049268:	25 c0 00 00 00       	and    $0xc0,%eax
 804926d:	83 f8 40             	cmp    $0x40,%eax
 8049270:	75 e7                	jne    8049259 <waitdisk+0x7>
 8049272:	c9                   	leave  
 8049273:	c3                   	ret    

08049274 <readsect>:
 8049274:	55                   	push   %ebp
 8049275:	89 e5                	mov    %esp,%ebp
 8049277:	53                   	push   %ebx
 8049278:	83 ec 18             	sub    $0x18,%esp
 804927b:	e8 d2 ff ff ff       	call   8049252 <waitdisk>
 8049280:	c7 44 24 04 01 00 00 	movl   $0x1,0x4(%esp)
 8049287:	00 
 8049288:	c7 04 24 f2 01 00 00 	movl   $0x1f2,(%esp)
 804928f:	e8 b4 fd ff ff       	call   8049048 <out_byte>
 8049294:	8b 45 0c             	mov    0xc(%ebp),%eax
 8049297:	0f be c0             	movsbl %al,%eax
 804929a:	89 44 24 04          	mov    %eax,0x4(%esp)
 804929e:	c7 04 24 f3 01 00 00 	movl   $0x1f3,(%esp)
 80492a5:	e8 9e fd ff ff       	call   8049048 <out_byte>
 80492aa:	8b 45 0c             	mov    0xc(%ebp),%eax
 80492ad:	c1 f8 08             	sar    $0x8,%eax
 80492b0:	0f be c0             	movsbl %al,%eax
 80492b3:	89 44 24 04          	mov    %eax,0x4(%esp)
 80492b7:	c7 04 24 f4 01 00 00 	movl   $0x1f4,(%esp)
 80492be:	e8 85 fd ff ff       	call   8049048 <out_byte>
 80492c3:	8b 45 0c             	mov    0xc(%ebp),%eax
 80492c6:	c1 f8 10             	sar    $0x10,%eax
 80492c9:	0f be c0             	movsbl %al,%eax
 80492cc:	89 44 24 04          	mov    %eax,0x4(%esp)
 80492d0:	c7 04 24 f5 01 00 00 	movl   $0x1f5,(%esp)
 80492d7:	e8 6c fd ff ff       	call   8049048 <out_byte>
 80492dc:	8b 45 0c             	mov    0xc(%ebp),%eax
 80492df:	c1 f8 18             	sar    $0x18,%eax
 80492e2:	83 c8 e0             	or     $0xffffffe0,%eax
 80492e5:	0f be c0             	movsbl %al,%eax
 80492e8:	89 44 24 04          	mov    %eax,0x4(%esp)
 80492ec:	c7 04 24 f6 01 00 00 	movl   $0x1f6,(%esp)
 80492f3:	e8 50 fd ff ff       	call   8049048 <out_byte>
 80492f8:	c7 44 24 04 20 00 00 	movl   $0x20,0x4(%esp)
 80492ff:	00 
 8049300:	c7 04 24 f7 01 00 00 	movl   $0x1f7,(%esp)
 8049307:	e8 3c fd ff ff       	call   8049048 <out_byte>
 804930c:	e8 41 ff ff ff       	call   8049252 <waitdisk>
 8049311:	c7 45 f8 00 00 00 00 	movl   $0x0,-0x8(%ebp)
 8049318:	eb 22                	jmp    804933c <readsect+0xc8>
 804931a:	8b 45 f8             	mov    -0x8(%ebp),%eax
 804931d:	8d 14 85 00 00 00 00 	lea    0x0(,%eax,4),%edx
 8049324:	8b 45 08             	mov    0x8(%ebp),%eax
 8049327:	8d 1c 02             	lea    (%edx,%eax,1),%ebx
 804932a:	c7 04 24 f0 01 00 00 	movl   $0x1f0,(%esp)
 8049331:	e8 f6 fc ff ff       	call   804902c <in_long>
 8049336:	89 03                	mov    %eax,(%ebx)
 8049338:	83 45 f8 01          	addl   $0x1,-0x8(%ebp)
 804933c:	83 7d f8 7f          	cmpl   $0x7f,-0x8(%ebp)
 8049340:	7e d8                	jle    804931a <readsect+0xa6>
 8049342:	83 c4 18             	add    $0x18,%esp
 8049345:	5b                   	pop    %ebx
 8049346:	5d                   	pop    %ebp
 8049347:	c3                   	ret    

08049348 <readseg>:
 8049348:	55                   	push   %ebp
 8049349:	89 e5                	mov    %esp,%ebp
 804934b:	83 ec 18             	sub    $0x18,%esp
 804934e:	8b 55 0c             	mov    0xc(%ebp),%edx
 8049351:	8b 45 08             	mov    0x8(%ebp),%eax
 8049354:	01 d0                	add    %edx,%eax
 8049356:	89 45 fc             	mov    %eax,-0x4(%ebp)
 8049359:	8b 45 10             	mov    0x10(%ebp),%eax
 804935c:	99                   	cltd   
 804935d:	c1 ea 17             	shr    $0x17,%edx
 8049360:	01 d0                	add    %edx,%eax
 8049362:	25 ff 01 00 00       	and    $0x1ff,%eax
 8049367:	29 d0                	sub    %edx,%eax
 8049369:	f7 d8                	neg    %eax
 804936b:	01 45 08             	add    %eax,0x8(%ebp)
 804936e:	8b 45 10             	mov    0x10(%ebp),%eax
 8049371:	8d 90 ff 01 00 00    	lea    0x1ff(%eax),%edx
 8049377:	85 c0                	test   %eax,%eax
 8049379:	0f 48 c2             	cmovs  %edx,%eax
 804937c:	c1 f8 09             	sar    $0x9,%eax
 804937f:	05 c9 00 00 00       	add    $0xc9,%eax
 8049384:	89 45 10             	mov    %eax,0x10(%ebp)
 8049387:	eb 1d                	jmp    80493a6 <readseg+0x5e>
 8049389:	8b 45 10             	mov    0x10(%ebp),%eax
 804938c:	89 44 24 04          	mov    %eax,0x4(%esp)
 8049390:	8b 45 08             	mov    0x8(%ebp),%eax
 8049393:	89 04 24             	mov    %eax,(%esp)
 8049396:	e8 d9 fe ff ff       	call   8049274 <readsect>
 804939b:	81 45 08 00 02 00 00 	addl   $0x200,0x8(%ebp)
 80493a2:	83 45 10 01          	addl   $0x1,0x10(%ebp)
 80493a6:	8b 45 08             	mov    0x8(%ebp),%eax
 80493a9:	3b 45 fc             	cmp    -0x4(%ebp),%eax
 80493ac:	72 db                	jb     8049389 <readseg+0x41>
 80493ae:	c9                   	leave  
 80493af:	c3                   	ret    

080493b0 <vec0>:
 80493b0:	6a 00                	push   $0x0
 80493b2:	6a 00                	push   $0x0
 80493b4:	e9 ab 00 00 00       	jmp    8049464 <asm_do_irq>

080493b9 <vec1>:
 80493b9:	6a 00                	push   $0x0
 80493bb:	6a 01                	push   $0x1
 80493bd:	e9 a2 00 00 00       	jmp    8049464 <asm_do_irq>

080493c2 <vec2>:
 80493c2:	6a 00                	push   $0x0
 80493c4:	6a 02                	push   $0x2
 80493c6:	e9 99 00 00 00       	jmp    8049464 <asm_do_irq>

080493cb <vec3>:
 80493cb:	6a 00                	push   $0x0
 80493cd:	6a 03                	push   $0x3
 80493cf:	e9 90 00 00 00       	jmp    8049464 <asm_do_irq>

080493d4 <vec4>:
 80493d4:	6a 00                	push   $0x0
 80493d6:	6a 04                	push   $0x4
 80493d8:	e9 87 00 00 00       	jmp    8049464 <asm_do_irq>

080493dd <vec5>:
 80493dd:	6a 00                	push   $0x0
 80493df:	6a 05                	push   $0x5
 80493e1:	e9 7e 00 00 00       	jmp    8049464 <asm_do_irq>

080493e6 <vec6>:
 80493e6:	6a 00                	push   $0x0
 80493e8:	6a 06                	push   $0x6
 80493ea:	e9 75 00 00 00       	jmp    8049464 <asm_do_irq>

080493ef <vec7>:
 80493ef:	6a 00                	push   $0x0
 80493f1:	6a 07                	push   $0x7
 80493f3:	e9 6c 00 00 00       	jmp    8049464 <asm_do_irq>

080493f8 <vec8>:
 80493f8:	6a 08                	push   $0x8
 80493fa:	e9 65 00 00 00       	jmp    8049464 <asm_do_irq>

080493ff <vec9>:
 80493ff:	6a 00                	push   $0x0
 8049401:	6a 09                	push   $0x9
 8049403:	e9 5c 00 00 00       	jmp    8049464 <asm_do_irq>

08049408 <vec10>:
 8049408:	6a 0a                	push   $0xa
 804940a:	e9 55 00 00 00       	jmp    8049464 <asm_do_irq>

0804940f <vec11>:
 804940f:	6a 0b                	push   $0xb
 8049411:	e9 4e 00 00 00       	jmp    8049464 <asm_do_irq>

08049416 <vec12>:
 8049416:	6a 0c                	push   $0xc
 8049418:	e9 47 00 00 00       	jmp    8049464 <asm_do_irq>

0804941d <vec13>:
 804941d:	6a 0d                	push   $0xd
 804941f:	e9 40 00 00 00       	jmp    8049464 <asm_do_irq>

08049424 <vec14>:
 8049424:	6a 0e                	push   $0xe
 8049426:	e9 39 00 00 00       	jmp    8049464 <asm_do_irq>

0804942b <vecsys>:
 804942b:	6a 00                	push   $0x0
 804942d:	68 80 00 00 00       	push   $0x80
 8049432:	e9 2d 00 00 00       	jmp    8049464 <asm_do_irq>

08049437 <irq0>:
 8049437:	6a 00                	push   $0x0
 8049439:	68 e8 03 00 00       	push   $0x3e8
 804943e:	e9 21 00 00 00       	jmp    8049464 <asm_do_irq>

08049443 <irq1>:
 8049443:	6a 00                	push   $0x0
 8049445:	68 e9 03 00 00       	push   $0x3e9
 804944a:	e9 15 00 00 00       	jmp    8049464 <asm_do_irq>

0804944f <irq14>:
 804944f:	6a 00                	push   $0x0
 8049451:	68 f6 03 00 00       	push   $0x3f6
 8049456:	e9 09 00 00 00       	jmp    8049464 <asm_do_irq>

0804945b <irq_empty>:
 804945b:	6a 00                	push   $0x0
 804945d:	6a ff                	push   $0xffffffff
 804945f:	e9 00 00 00 00       	jmp    8049464 <asm_do_irq>

08049464 <asm_do_irq>:
 8049464:	60                   	pusha  
 8049465:	54                   	push   %esp
 8049466:	e8 ca ef ff ff       	call   8048435 <irq_handle>
 804946b:	83 c4 04             	add    $0x4,%esp
 804946e:	61                   	popa   
 804946f:	83 c4 08             	add    $0x8,%esp
 8049472:	cf                   	iret   
 8049473:	90                   	nop
 8049474:	02 b0 ad 1b 00 00    	add    0x1bad(%eax),%dh
 804947a:	00 00                	add    %al,(%eax)
 804947c:	fe 4f 52             	decb   0x52(%edi)
 804947f:	e4 66                	in     $0x66,%al

08049480 <entry>:
 8049480:	66 c7 05 72 04 00 00 	movw   $0x1234,0x472
 8049487:	34 12 
 8049489:	b8 00 f0 04 48       	mov    $0x4804f000,%eax
 804948e:	0f 22 d8             	mov    %eax,%cr3
 8049491:	0f 20 c0             	mov    %cr0,%eax
 8049494:	0d 01 00 01 80       	or     $0x80010001,%eax
 8049499:	0f 22 c0             	mov    %eax,%cr0
 804949c:	b8 a3 94 04 08       	mov    $0x80494a3,%eax
 80494a1:	ff e0                	jmp    *%eax

080494a3 <relocated>:
 80494a3:	bd 00 00 00 00       	mov    $0x0,%ebp
 80494a8:	bc 00 80 05 08       	mov    $0x8058000,%esp
 80494ad:	e8 dc ec ff ff       	call   804818e <kernel_main>

080494b2 <spin>:
 80494b2:	eb fe                	jmp    80494b2 <spin>

080494b4 <printnum>:
 80494b4:	55                   	push   %ebp
 80494b5:	89 e5                	mov    %esp,%ebp
 80494b7:	53                   	push   %ebx
 80494b8:	83 ec 34             	sub    $0x34,%esp
 80494bb:	8b 45 10             	mov    0x10(%ebp),%eax
 80494be:	89 45 f0             	mov    %eax,-0x10(%ebp)
 80494c1:	8b 45 14             	mov    0x14(%ebp),%eax
 80494c4:	89 45 f4             	mov    %eax,-0xc(%ebp)
 80494c7:	8b 45 18             	mov    0x18(%ebp),%eax
 80494ca:	ba 00 00 00 00       	mov    $0x0,%edx
 80494cf:	3b 55 f4             	cmp    -0xc(%ebp),%edx
 80494d2:	77 72                	ja     8049546 <printnum+0x92>
 80494d4:	3b 55 f4             	cmp    -0xc(%ebp),%edx
 80494d7:	72 05                	jb     80494de <printnum+0x2a>
 80494d9:	3b 45 f0             	cmp    -0x10(%ebp),%eax
 80494dc:	77 68                	ja     8049546 <printnum+0x92>
 80494de:	8b 45 1c             	mov    0x1c(%ebp),%eax
 80494e1:	8d 58 ff             	lea    -0x1(%eax),%ebx
 80494e4:	8b 45 18             	mov    0x18(%ebp),%eax
 80494e7:	ba 00 00 00 00       	mov    $0x0,%edx
 80494ec:	89 44 24 08          	mov    %eax,0x8(%esp)
 80494f0:	89 54 24 0c          	mov    %edx,0xc(%esp)
 80494f4:	8b 45 f0             	mov    -0x10(%ebp),%eax
 80494f7:	8b 55 f4             	mov    -0xc(%ebp),%edx
 80494fa:	89 04 24             	mov    %eax,(%esp)
 80494fd:	89 54 24 04          	mov    %edx,0x4(%esp)
 8049501:	e8 6a 0d 00 00       	call   804a270 <__udivdi3>
 8049506:	8b 4d 20             	mov    0x20(%ebp),%ecx
 8049509:	89 4c 24 18          	mov    %ecx,0x18(%esp)
 804950d:	89 5c 24 14          	mov    %ebx,0x14(%esp)
 8049511:	8b 4d 18             	mov    0x18(%ebp),%ecx
 8049514:	89 4c 24 10          	mov    %ecx,0x10(%esp)
 8049518:	89 44 24 08          	mov    %eax,0x8(%esp)
 804951c:	89 54 24 0c          	mov    %edx,0xc(%esp)
 8049520:	8b 45 0c             	mov    0xc(%ebp),%eax
 8049523:	89 44 24 04          	mov    %eax,0x4(%esp)
 8049527:	8b 45 08             	mov    0x8(%ebp),%eax
 804952a:	89 04 24             	mov    %eax,(%esp)
 804952d:	e8 82 ff ff ff       	call   80494b4 <printnum>
 8049532:	eb 1c                	jmp    8049550 <printnum+0x9c>
 8049534:	8b 45 0c             	mov    0xc(%ebp),%eax
 8049537:	89 44 24 04          	mov    %eax,0x4(%esp)
 804953b:	8b 45 20             	mov    0x20(%ebp),%eax
 804953e:	89 04 24             	mov    %eax,(%esp)
 8049541:	8b 45 08             	mov    0x8(%ebp),%eax
 8049544:	ff d0                	call   *%eax
 8049546:	83 6d 1c 01          	subl   $0x1,0x1c(%ebp)
 804954a:	83 7d 1c 00          	cmpl   $0x0,0x1c(%ebp)
 804954e:	7f e4                	jg     8049534 <printnum+0x80>
 8049550:	8b 4d 18             	mov    0x18(%ebp),%ecx
 8049553:	bb 00 00 00 00       	mov    $0x0,%ebx
 8049558:	8b 45 f0             	mov    -0x10(%ebp),%eax
 804955b:	8b 55 f4             	mov    -0xc(%ebp),%edx
 804955e:	89 4c 24 08          	mov    %ecx,0x8(%esp)
 8049562:	89 5c 24 0c          	mov    %ebx,0xc(%esp)
 8049566:	89 04 24             	mov    %eax,(%esp)
 8049569:	89 54 24 04          	mov    %edx,0x4(%esp)
 804956d:	e8 2e 0e 00 00       	call   804a3a0 <__umoddi3>
 8049572:	05 80 a7 04 08       	add    $0x804a780,%eax
 8049577:	0f b6 00             	movzbl (%eax),%eax
 804957a:	0f be c0             	movsbl %al,%eax
 804957d:	8b 55 0c             	mov    0xc(%ebp),%edx
 8049580:	89 54 24 04          	mov    %edx,0x4(%esp)
 8049584:	89 04 24             	mov    %eax,(%esp)
 8049587:	8b 45 08             	mov    0x8(%ebp),%eax
 804958a:	ff d0                	call   *%eax
 804958c:	83 c4 34             	add    $0x34,%esp
 804958f:	5b                   	pop    %ebx
 8049590:	5d                   	pop    %ebp
 8049591:	c3                   	ret    

08049592 <getuint>:
 8049592:	55                   	push   %ebp
 8049593:	89 e5                	mov    %esp,%ebp
 8049595:	83 7d 0c 01          	cmpl   $0x1,0xc(%ebp)
 8049599:	7e 14                	jle    80495af <getuint+0x1d>
 804959b:	8b 45 08             	mov    0x8(%ebp),%eax
 804959e:	8b 00                	mov    (%eax),%eax
 80495a0:	8d 48 08             	lea    0x8(%eax),%ecx
 80495a3:	8b 55 08             	mov    0x8(%ebp),%edx
 80495a6:	89 0a                	mov    %ecx,(%edx)
 80495a8:	8b 50 04             	mov    0x4(%eax),%edx
 80495ab:	8b 00                	mov    (%eax),%eax
 80495ad:	eb 30                	jmp    80495df <getuint+0x4d>
 80495af:	83 7d 0c 00          	cmpl   $0x0,0xc(%ebp)
 80495b3:	74 16                	je     80495cb <getuint+0x39>
 80495b5:	8b 45 08             	mov    0x8(%ebp),%eax
 80495b8:	8b 00                	mov    (%eax),%eax
 80495ba:	8d 48 04             	lea    0x4(%eax),%ecx
 80495bd:	8b 55 08             	mov    0x8(%ebp),%edx
 80495c0:	89 0a                	mov    %ecx,(%edx)
 80495c2:	8b 00                	mov    (%eax),%eax
 80495c4:	ba 00 00 00 00       	mov    $0x0,%edx
 80495c9:	eb 14                	jmp    80495df <getuint+0x4d>
 80495cb:	8b 45 08             	mov    0x8(%ebp),%eax
 80495ce:	8b 00                	mov    (%eax),%eax
 80495d0:	8d 48 04             	lea    0x4(%eax),%ecx
 80495d3:	8b 55 08             	mov    0x8(%ebp),%edx
 80495d6:	89 0a                	mov    %ecx,(%edx)
 80495d8:	8b 00                	mov    (%eax),%eax
 80495da:	ba 00 00 00 00       	mov    $0x0,%edx
 80495df:	5d                   	pop    %ebp
 80495e0:	c3                   	ret    

080495e1 <getint>:
 80495e1:	55                   	push   %ebp
 80495e2:	89 e5                	mov    %esp,%ebp
 80495e4:	83 7d 0c 01          	cmpl   $0x1,0xc(%ebp)
 80495e8:	7e 14                	jle    80495fe <getint+0x1d>
 80495ea:	8b 45 08             	mov    0x8(%ebp),%eax
 80495ed:	8b 00                	mov    (%eax),%eax
 80495ef:	8d 48 08             	lea    0x8(%eax),%ecx
 80495f2:	8b 55 08             	mov    0x8(%ebp),%edx
 80495f5:	89 0a                	mov    %ecx,(%edx)
 80495f7:	8b 50 04             	mov    0x4(%eax),%edx
 80495fa:	8b 00                	mov    (%eax),%eax
 80495fc:	eb 28                	jmp    8049626 <getint+0x45>
 80495fe:	83 7d 0c 00          	cmpl   $0x0,0xc(%ebp)
 8049602:	74 12                	je     8049616 <getint+0x35>
 8049604:	8b 45 08             	mov    0x8(%ebp),%eax
 8049607:	8b 00                	mov    (%eax),%eax
 8049609:	8d 48 04             	lea    0x4(%eax),%ecx
 804960c:	8b 55 08             	mov    0x8(%ebp),%edx
 804960f:	89 0a                	mov    %ecx,(%edx)
 8049611:	8b 00                	mov    (%eax),%eax
 8049613:	99                   	cltd   
 8049614:	eb 10                	jmp    8049626 <getint+0x45>
 8049616:	8b 45 08             	mov    0x8(%ebp),%eax
 8049619:	8b 00                	mov    (%eax),%eax
 804961b:	8d 48 04             	lea    0x4(%eax),%ecx
 804961e:	8b 55 08             	mov    0x8(%ebp),%edx
 8049621:	89 0a                	mov    %ecx,(%edx)
 8049623:	8b 00                	mov    (%eax),%eax
 8049625:	99                   	cltd   
 8049626:	5d                   	pop    %ebp
 8049627:	c3                   	ret    

08049628 <vprintfmt>:
 8049628:	55                   	push   %ebp
 8049629:	89 e5                	mov    %esp,%ebp
 804962b:	56                   	push   %esi
 804962c:	53                   	push   %ebx
 804962d:	83 ec 40             	sub    $0x40,%esp
 8049630:	eb 18                	jmp    804964a <vprintfmt+0x22>
 8049632:	85 db                	test   %ebx,%ebx
 8049634:	75 05                	jne    804963b <vprintfmt+0x13>
 8049636:	e9 e9 03 00 00       	jmp    8049a24 <vprintfmt+0x3fc>
 804963b:	8b 45 0c             	mov    0xc(%ebp),%eax
 804963e:	89 44 24 04          	mov    %eax,0x4(%esp)
 8049642:	89 1c 24             	mov    %ebx,(%esp)
 8049645:	8b 45 08             	mov    0x8(%ebp),%eax
 8049648:	ff d0                	call   *%eax
 804964a:	8b 45 10             	mov    0x10(%ebp),%eax
 804964d:	8d 50 01             	lea    0x1(%eax),%edx
 8049650:	89 55 10             	mov    %edx,0x10(%ebp)
 8049653:	0f b6 00             	movzbl (%eax),%eax
 8049656:	0f b6 d8             	movzbl %al,%ebx
 8049659:	83 fb 25             	cmp    $0x25,%ebx
 804965c:	75 d4                	jne    8049632 <vprintfmt+0xa>
 804965e:	c6 45 db 20          	movb   $0x20,-0x25(%ebp)
 8049662:	c7 45 e4 ff ff ff ff 	movl   $0xffffffff,-0x1c(%ebp)
 8049669:	c7 45 e0 ff ff ff ff 	movl   $0xffffffff,-0x20(%ebp)
 8049670:	c7 45 e8 00 00 00 00 	movl   $0x0,-0x18(%ebp)
 8049677:	c7 45 dc 00 00 00 00 	movl   $0x0,-0x24(%ebp)
 804967e:	8b 45 10             	mov    0x10(%ebp),%eax
 8049681:	8d 50 01             	lea    0x1(%eax),%edx
 8049684:	89 55 10             	mov    %edx,0x10(%ebp)
 8049687:	0f b6 00             	movzbl (%eax),%eax
 804968a:	0f b6 d8             	movzbl %al,%ebx
 804968d:	8d 43 dd             	lea    -0x23(%ebx),%eax
 8049690:	83 f8 55             	cmp    $0x55,%eax
 8049693:	0f 87 5a 03 00 00    	ja     80499f3 <vprintfmt+0x3cb>
 8049699:	8b 04 85 a4 a7 04 08 	mov    0x804a7a4(,%eax,4),%eax
 80496a0:	ff e0                	jmp    *%eax
 80496a2:	c6 45 db 2d          	movb   $0x2d,-0x25(%ebp)
 80496a6:	eb d6                	jmp    804967e <vprintfmt+0x56>
 80496a8:	c6 45 db 30          	movb   $0x30,-0x25(%ebp)
 80496ac:	eb d0                	jmp    804967e <vprintfmt+0x56>
 80496ae:	c7 45 e0 00 00 00 00 	movl   $0x0,-0x20(%ebp)
 80496b5:	8b 55 e0             	mov    -0x20(%ebp),%edx
 80496b8:	89 d0                	mov    %edx,%eax
 80496ba:	c1 e0 02             	shl    $0x2,%eax
 80496bd:	01 d0                	add    %edx,%eax
 80496bf:	01 c0                	add    %eax,%eax
 80496c1:	01 d8                	add    %ebx,%eax
 80496c3:	83 e8 30             	sub    $0x30,%eax
 80496c6:	89 45 e0             	mov    %eax,-0x20(%ebp)
 80496c9:	8b 45 10             	mov    0x10(%ebp),%eax
 80496cc:	0f b6 00             	movzbl (%eax),%eax
 80496cf:	0f be d8             	movsbl %al,%ebx
 80496d2:	83 fb 2f             	cmp    $0x2f,%ebx
 80496d5:	7e 0b                	jle    80496e2 <vprintfmt+0xba>
 80496d7:	83 fb 39             	cmp    $0x39,%ebx
 80496da:	7f 06                	jg     80496e2 <vprintfmt+0xba>
 80496dc:	83 45 10 01          	addl   $0x1,0x10(%ebp)
 80496e0:	eb d3                	jmp    80496b5 <vprintfmt+0x8d>
 80496e2:	eb 33                	jmp    8049717 <vprintfmt+0xef>
 80496e4:	8b 45 14             	mov    0x14(%ebp),%eax
 80496e7:	8d 50 04             	lea    0x4(%eax),%edx
 80496ea:	89 55 14             	mov    %edx,0x14(%ebp)
 80496ed:	8b 00                	mov    (%eax),%eax
 80496ef:	89 45 e0             	mov    %eax,-0x20(%ebp)
 80496f2:	eb 23                	jmp    8049717 <vprintfmt+0xef>
 80496f4:	83 7d e4 00          	cmpl   $0x0,-0x1c(%ebp)
 80496f8:	79 0c                	jns    8049706 <vprintfmt+0xde>
 80496fa:	c7 45 e4 00 00 00 00 	movl   $0x0,-0x1c(%ebp)
 8049701:	e9 78 ff ff ff       	jmp    804967e <vprintfmt+0x56>
 8049706:	e9 73 ff ff ff       	jmp    804967e <vprintfmt+0x56>
 804970b:	c7 45 dc 01 00 00 00 	movl   $0x1,-0x24(%ebp)
 8049712:	e9 67 ff ff ff       	jmp    804967e <vprintfmt+0x56>
 8049717:	83 7d e4 00          	cmpl   $0x0,-0x1c(%ebp)
 804971b:	79 12                	jns    804972f <vprintfmt+0x107>
 804971d:	8b 45 e0             	mov    -0x20(%ebp),%eax
 8049720:	89 45 e4             	mov    %eax,-0x1c(%ebp)
 8049723:	c7 45 e0 ff ff ff ff 	movl   $0xffffffff,-0x20(%ebp)
 804972a:	e9 4f ff ff ff       	jmp    804967e <vprintfmt+0x56>
 804972f:	e9 4a ff ff ff       	jmp    804967e <vprintfmt+0x56>
 8049734:	83 45 e8 01          	addl   $0x1,-0x18(%ebp)
 8049738:	e9 41 ff ff ff       	jmp    804967e <vprintfmt+0x56>
 804973d:	8b 45 14             	mov    0x14(%ebp),%eax
 8049740:	8d 50 04             	lea    0x4(%eax),%edx
 8049743:	89 55 14             	mov    %edx,0x14(%ebp)
 8049746:	8b 00                	mov    (%eax),%eax
 8049748:	8b 55 0c             	mov    0xc(%ebp),%edx
 804974b:	89 54 24 04          	mov    %edx,0x4(%esp)
 804974f:	89 04 24             	mov    %eax,(%esp)
 8049752:	8b 45 08             	mov    0x8(%ebp),%eax
 8049755:	ff d0                	call   *%eax
 8049757:	e9 c2 02 00 00       	jmp    8049a1e <vprintfmt+0x3f6>
 804975c:	8b 45 14             	mov    0x14(%ebp),%eax
 804975f:	8d 50 04             	lea    0x4(%eax),%edx
 8049762:	89 55 14             	mov    %edx,0x14(%ebp)
 8049765:	8b 18                	mov    (%eax),%ebx
 8049767:	85 db                	test   %ebx,%ebx
 8049769:	79 02                	jns    804976d <vprintfmt+0x145>
 804976b:	f7 db                	neg    %ebx
 804976d:	83 fb 07             	cmp    $0x7,%ebx
 8049770:	7f 0b                	jg     804977d <vprintfmt+0x155>
 8049772:	8b 34 9d 60 a7 04 08 	mov    0x804a760(,%ebx,4),%esi
 8049779:	85 f6                	test   %esi,%esi
 804977b:	75 23                	jne    80497a0 <vprintfmt+0x178>
 804977d:	89 5c 24 0c          	mov    %ebx,0xc(%esp)
 8049781:	c7 44 24 08 91 a7 04 	movl   $0x804a791,0x8(%esp)
 8049788:	08 
 8049789:	8b 45 0c             	mov    0xc(%ebp),%eax
 804978c:	89 44 24 04          	mov    %eax,0x4(%esp)
 8049790:	8b 45 08             	mov    0x8(%ebp),%eax
 8049793:	89 04 24             	mov    %eax,(%esp)
 8049796:	e8 90 02 00 00       	call   8049a2b <printfmt>
 804979b:	e9 7e 02 00 00       	jmp    8049a1e <vprintfmt+0x3f6>
 80497a0:	89 74 24 0c          	mov    %esi,0xc(%esp)
 80497a4:	c7 44 24 08 9a a7 04 	movl   $0x804a79a,0x8(%esp)
 80497ab:	08 
 80497ac:	8b 45 0c             	mov    0xc(%ebp),%eax
 80497af:	89 44 24 04          	mov    %eax,0x4(%esp)
 80497b3:	8b 45 08             	mov    0x8(%ebp),%eax
 80497b6:	89 04 24             	mov    %eax,(%esp)
 80497b9:	e8 6d 02 00 00       	call   8049a2b <printfmt>
 80497be:	e9 5b 02 00 00       	jmp    8049a1e <vprintfmt+0x3f6>
 80497c3:	8b 45 14             	mov    0x14(%ebp),%eax
 80497c6:	8d 50 04             	lea    0x4(%eax),%edx
 80497c9:	89 55 14             	mov    %edx,0x14(%ebp)
 80497cc:	8b 30                	mov    (%eax),%esi
 80497ce:	85 f6                	test   %esi,%esi
 80497d0:	75 05                	jne    80497d7 <vprintfmt+0x1af>
 80497d2:	be 9d a7 04 08       	mov    $0x804a79d,%esi
 80497d7:	83 7d e4 00          	cmpl   $0x0,-0x1c(%ebp)
 80497db:	7e 37                	jle    8049814 <vprintfmt+0x1ec>
 80497dd:	80 7d db 2d          	cmpb   $0x2d,-0x25(%ebp)
 80497e1:	74 31                	je     8049814 <vprintfmt+0x1ec>
 80497e3:	8b 45 e0             	mov    -0x20(%ebp),%eax
 80497e6:	89 44 24 04          	mov    %eax,0x4(%esp)
 80497ea:	89 34 24             	mov    %esi,(%esp)
 80497ed:	e8 58 04 00 00       	call   8049c4a <strnlen>
 80497f2:	29 45 e4             	sub    %eax,-0x1c(%ebp)
 80497f5:	eb 17                	jmp    804980e <vprintfmt+0x1e6>
 80497f7:	0f be 45 db          	movsbl -0x25(%ebp),%eax
 80497fb:	8b 55 0c             	mov    0xc(%ebp),%edx
 80497fe:	89 54 24 04          	mov    %edx,0x4(%esp)
 8049802:	89 04 24             	mov    %eax,(%esp)
 8049805:	8b 45 08             	mov    0x8(%ebp),%eax
 8049808:	ff d0                	call   *%eax
 804980a:	83 6d e4 01          	subl   $0x1,-0x1c(%ebp)
 804980e:	83 7d e4 00          	cmpl   $0x0,-0x1c(%ebp)
 8049812:	7f e3                	jg     80497f7 <vprintfmt+0x1cf>
 8049814:	eb 38                	jmp    804984e <vprintfmt+0x226>
 8049816:	83 7d dc 00          	cmpl   $0x0,-0x24(%ebp)
 804981a:	74 1f                	je     804983b <vprintfmt+0x213>
 804981c:	83 fb 1f             	cmp    $0x1f,%ebx
 804981f:	7e 05                	jle    8049826 <vprintfmt+0x1fe>
 8049821:	83 fb 7e             	cmp    $0x7e,%ebx
 8049824:	7e 15                	jle    804983b <vprintfmt+0x213>
 8049826:	8b 45 0c             	mov    0xc(%ebp),%eax
 8049829:	89 44 24 04          	mov    %eax,0x4(%esp)
 804982d:	c7 04 24 3f 00 00 00 	movl   $0x3f,(%esp)
 8049834:	8b 45 08             	mov    0x8(%ebp),%eax
 8049837:	ff d0                	call   *%eax
 8049839:	eb 0f                	jmp    804984a <vprintfmt+0x222>
 804983b:	8b 45 0c             	mov    0xc(%ebp),%eax
 804983e:	89 44 24 04          	mov    %eax,0x4(%esp)
 8049842:	89 1c 24             	mov    %ebx,(%esp)
 8049845:	8b 45 08             	mov    0x8(%ebp),%eax
 8049848:	ff d0                	call   *%eax
 804984a:	83 6d e4 01          	subl   $0x1,-0x1c(%ebp)
 804984e:	89 f0                	mov    %esi,%eax
 8049850:	8d 70 01             	lea    0x1(%eax),%esi
 8049853:	0f b6 00             	movzbl (%eax),%eax
 8049856:	0f be d8             	movsbl %al,%ebx
 8049859:	85 db                	test   %ebx,%ebx
 804985b:	74 10                	je     804986d <vprintfmt+0x245>
 804985d:	83 7d e0 00          	cmpl   $0x0,-0x20(%ebp)
 8049861:	78 b3                	js     8049816 <vprintfmt+0x1ee>
 8049863:	83 6d e0 01          	subl   $0x1,-0x20(%ebp)
 8049867:	83 7d e0 00          	cmpl   $0x0,-0x20(%ebp)
 804986b:	79 a9                	jns    8049816 <vprintfmt+0x1ee>
 804986d:	eb 17                	jmp    8049886 <vprintfmt+0x25e>
 804986f:	8b 45 0c             	mov    0xc(%ebp),%eax
 8049872:	89 44 24 04          	mov    %eax,0x4(%esp)
 8049876:	c7 04 24 20 00 00 00 	movl   $0x20,(%esp)
 804987d:	8b 45 08             	mov    0x8(%ebp),%eax
 8049880:	ff d0                	call   *%eax
 8049882:	83 6d e4 01          	subl   $0x1,-0x1c(%ebp)
 8049886:	83 7d e4 00          	cmpl   $0x0,-0x1c(%ebp)
 804988a:	7f e3                	jg     804986f <vprintfmt+0x247>
 804988c:	e9 8d 01 00 00       	jmp    8049a1e <vprintfmt+0x3f6>
 8049891:	8b 45 e8             	mov    -0x18(%ebp),%eax
 8049894:	89 44 24 04          	mov    %eax,0x4(%esp)
 8049898:	8d 45 14             	lea    0x14(%ebp),%eax
 804989b:	89 04 24             	mov    %eax,(%esp)
 804989e:	e8 3e fd ff ff       	call   80495e1 <getint>
 80498a3:	89 45 f0             	mov    %eax,-0x10(%ebp)
 80498a6:	89 55 f4             	mov    %edx,-0xc(%ebp)
 80498a9:	8b 45 f0             	mov    -0x10(%ebp),%eax
 80498ac:	8b 55 f4             	mov    -0xc(%ebp),%edx
 80498af:	85 d2                	test   %edx,%edx
 80498b1:	79 26                	jns    80498d9 <vprintfmt+0x2b1>
 80498b3:	8b 45 0c             	mov    0xc(%ebp),%eax
 80498b6:	89 44 24 04          	mov    %eax,0x4(%esp)
 80498ba:	c7 04 24 2d 00 00 00 	movl   $0x2d,(%esp)
 80498c1:	8b 45 08             	mov    0x8(%ebp),%eax
 80498c4:	ff d0                	call   *%eax
 80498c6:	8b 45 f0             	mov    -0x10(%ebp),%eax
 80498c9:	8b 55 f4             	mov    -0xc(%ebp),%edx
 80498cc:	f7 d8                	neg    %eax
 80498ce:	83 d2 00             	adc    $0x0,%edx
 80498d1:	f7 da                	neg    %edx
 80498d3:	89 45 f0             	mov    %eax,-0x10(%ebp)
 80498d6:	89 55 f4             	mov    %edx,-0xc(%ebp)
 80498d9:	c7 45 ec 0a 00 00 00 	movl   $0xa,-0x14(%ebp)
 80498e0:	e9 c5 00 00 00       	jmp    80499aa <vprintfmt+0x382>
 80498e5:	8b 45 e8             	mov    -0x18(%ebp),%eax
 80498e8:	89 44 24 04          	mov    %eax,0x4(%esp)
 80498ec:	8d 45 14             	lea    0x14(%ebp),%eax
 80498ef:	89 04 24             	mov    %eax,(%esp)
 80498f2:	e8 9b fc ff ff       	call   8049592 <getuint>
 80498f7:	89 45 f0             	mov    %eax,-0x10(%ebp)
 80498fa:	89 55 f4             	mov    %edx,-0xc(%ebp)
 80498fd:	c7 45 ec 0a 00 00 00 	movl   $0xa,-0x14(%ebp)
 8049904:	e9 a1 00 00 00       	jmp    80499aa <vprintfmt+0x382>
 8049909:	8b 45 0c             	mov    0xc(%ebp),%eax
 804990c:	89 44 24 04          	mov    %eax,0x4(%esp)
 8049910:	c7 04 24 58 00 00 00 	movl   $0x58,(%esp)
 8049917:	8b 45 08             	mov    0x8(%ebp),%eax
 804991a:	ff d0                	call   *%eax
 804991c:	8b 45 0c             	mov    0xc(%ebp),%eax
 804991f:	89 44 24 04          	mov    %eax,0x4(%esp)
 8049923:	c7 04 24 58 00 00 00 	movl   $0x58,(%esp)
 804992a:	8b 45 08             	mov    0x8(%ebp),%eax
 804992d:	ff d0                	call   *%eax
 804992f:	8b 45 0c             	mov    0xc(%ebp),%eax
 8049932:	89 44 24 04          	mov    %eax,0x4(%esp)
 8049936:	c7 04 24 58 00 00 00 	movl   $0x58,(%esp)
 804993d:	8b 45 08             	mov    0x8(%ebp),%eax
 8049940:	ff d0                	call   *%eax
 8049942:	e9 d7 00 00 00       	jmp    8049a1e <vprintfmt+0x3f6>
 8049947:	8b 45 0c             	mov    0xc(%ebp),%eax
 804994a:	89 44 24 04          	mov    %eax,0x4(%esp)
 804994e:	c7 04 24 30 00 00 00 	movl   $0x30,(%esp)
 8049955:	8b 45 08             	mov    0x8(%ebp),%eax
 8049958:	ff d0                	call   *%eax
 804995a:	8b 45 0c             	mov    0xc(%ebp),%eax
 804995d:	89 44 24 04          	mov    %eax,0x4(%esp)
 8049961:	c7 04 24 78 00 00 00 	movl   $0x78,(%esp)
 8049968:	8b 45 08             	mov    0x8(%ebp),%eax
 804996b:	ff d0                	call   *%eax
 804996d:	8b 45 14             	mov    0x14(%ebp),%eax
 8049970:	8d 50 04             	lea    0x4(%eax),%edx
 8049973:	89 55 14             	mov    %edx,0x14(%ebp)
 8049976:	8b 00                	mov    (%eax),%eax
 8049978:	89 45 f0             	mov    %eax,-0x10(%ebp)
 804997b:	c7 45 f4 00 00 00 00 	movl   $0x0,-0xc(%ebp)
 8049982:	c7 45 ec 10 00 00 00 	movl   $0x10,-0x14(%ebp)
 8049989:	eb 1f                	jmp    80499aa <vprintfmt+0x382>
 804998b:	8b 45 e8             	mov    -0x18(%ebp),%eax
 804998e:	89 44 24 04          	mov    %eax,0x4(%esp)
 8049992:	8d 45 14             	lea    0x14(%ebp),%eax
 8049995:	89 04 24             	mov    %eax,(%esp)
 8049998:	e8 f5 fb ff ff       	call   8049592 <getuint>
 804999d:	89 45 f0             	mov    %eax,-0x10(%ebp)
 80499a0:	89 55 f4             	mov    %edx,-0xc(%ebp)
 80499a3:	c7 45 ec 10 00 00 00 	movl   $0x10,-0x14(%ebp)
 80499aa:	0f be 55 db          	movsbl -0x25(%ebp),%edx
 80499ae:	8b 45 ec             	mov    -0x14(%ebp),%eax
 80499b1:	89 54 24 18          	mov    %edx,0x18(%esp)
 80499b5:	8b 55 e4             	mov    -0x1c(%ebp),%edx
 80499b8:	89 54 24 14          	mov    %edx,0x14(%esp)
 80499bc:	89 44 24 10          	mov    %eax,0x10(%esp)
 80499c0:	8b 45 f0             	mov    -0x10(%ebp),%eax
 80499c3:	8b 55 f4             	mov    -0xc(%ebp),%edx
 80499c6:	89 44 24 08          	mov    %eax,0x8(%esp)
 80499ca:	89 54 24 0c          	mov    %edx,0xc(%esp)
 80499ce:	8b 45 0c             	mov    0xc(%ebp),%eax
 80499d1:	89 44 24 04          	mov    %eax,0x4(%esp)
 80499d5:	8b 45 08             	mov    0x8(%ebp),%eax
 80499d8:	89 04 24             	mov    %eax,(%esp)
 80499db:	e8 d4 fa ff ff       	call   80494b4 <printnum>
 80499e0:	eb 3c                	jmp    8049a1e <vprintfmt+0x3f6>
 80499e2:	8b 45 0c             	mov    0xc(%ebp),%eax
 80499e5:	89 44 24 04          	mov    %eax,0x4(%esp)
 80499e9:	89 1c 24             	mov    %ebx,(%esp)
 80499ec:	8b 45 08             	mov    0x8(%ebp),%eax
 80499ef:	ff d0                	call   *%eax
 80499f1:	eb 2b                	jmp    8049a1e <vprintfmt+0x3f6>
 80499f3:	8b 45 0c             	mov    0xc(%ebp),%eax
 80499f6:	89 44 24 04          	mov    %eax,0x4(%esp)
 80499fa:	c7 04 24 25 00 00 00 	movl   $0x25,(%esp)
 8049a01:	8b 45 08             	mov    0x8(%ebp),%eax
 8049a04:	ff d0                	call   *%eax
 8049a06:	83 6d 10 01          	subl   $0x1,0x10(%ebp)
 8049a0a:	eb 04                	jmp    8049a10 <vprintfmt+0x3e8>
 8049a0c:	83 6d 10 01          	subl   $0x1,0x10(%ebp)
 8049a10:	8b 45 10             	mov    0x10(%ebp),%eax
 8049a13:	83 e8 01             	sub    $0x1,%eax
 8049a16:	0f b6 00             	movzbl (%eax),%eax
 8049a19:	3c 25                	cmp    $0x25,%al
 8049a1b:	75 ef                	jne    8049a0c <vprintfmt+0x3e4>
 8049a1d:	90                   	nop
 8049a1e:	90                   	nop
 8049a1f:	e9 26 fc ff ff       	jmp    804964a <vprintfmt+0x22>
 8049a24:	83 c4 40             	add    $0x40,%esp
 8049a27:	5b                   	pop    %ebx
 8049a28:	5e                   	pop    %esi
 8049a29:	5d                   	pop    %ebp
 8049a2a:	c3                   	ret    

08049a2b <printfmt>:
 8049a2b:	55                   	push   %ebp
 8049a2c:	89 e5                	mov    %esp,%ebp
 8049a2e:	83 ec 28             	sub    $0x28,%esp
 8049a31:	8d 45 14             	lea    0x14(%ebp),%eax
 8049a34:	89 45 f4             	mov    %eax,-0xc(%ebp)
 8049a37:	8b 45 f4             	mov    -0xc(%ebp),%eax
 8049a3a:	89 44 24 0c          	mov    %eax,0xc(%esp)
 8049a3e:	8b 45 10             	mov    0x10(%ebp),%eax
 8049a41:	89 44 24 08          	mov    %eax,0x8(%esp)
 8049a45:	8b 45 0c             	mov    0xc(%ebp),%eax
 8049a48:	89 44 24 04          	mov    %eax,0x4(%esp)
 8049a4c:	8b 45 08             	mov    0x8(%ebp),%eax
 8049a4f:	89 04 24             	mov    %eax,(%esp)
 8049a52:	e8 d1 fb ff ff       	call   8049628 <vprintfmt>
 8049a57:	c9                   	leave  
 8049a58:	c3                   	ret    

08049a59 <sprintputch>:
 8049a59:	55                   	push   %ebp
 8049a5a:	89 e5                	mov    %esp,%ebp
 8049a5c:	8b 45 0c             	mov    0xc(%ebp),%eax
 8049a5f:	8b 40 08             	mov    0x8(%eax),%eax
 8049a62:	8d 50 01             	lea    0x1(%eax),%edx
 8049a65:	8b 45 0c             	mov    0xc(%ebp),%eax
 8049a68:	89 50 08             	mov    %edx,0x8(%eax)
 8049a6b:	8b 45 0c             	mov    0xc(%ebp),%eax
 8049a6e:	8b 10                	mov    (%eax),%edx
 8049a70:	8b 45 0c             	mov    0xc(%ebp),%eax
 8049a73:	8b 40 04             	mov    0x4(%eax),%eax
 8049a76:	39 c2                	cmp    %eax,%edx
 8049a78:	73 12                	jae    8049a8c <sprintputch+0x33>
 8049a7a:	8b 45 0c             	mov    0xc(%ebp),%eax
 8049a7d:	8b 00                	mov    (%eax),%eax
 8049a7f:	8d 48 01             	lea    0x1(%eax),%ecx
 8049a82:	8b 55 0c             	mov    0xc(%ebp),%edx
 8049a85:	89 0a                	mov    %ecx,(%edx)
 8049a87:	8b 55 08             	mov    0x8(%ebp),%edx
 8049a8a:	88 10                	mov    %dl,(%eax)
 8049a8c:	5d                   	pop    %ebp
 8049a8d:	c3                   	ret    

08049a8e <vsnprintf>:
 8049a8e:	55                   	push   %ebp
 8049a8f:	89 e5                	mov    %esp,%ebp
 8049a91:	83 ec 28             	sub    $0x28,%esp
 8049a94:	8b 45 08             	mov    0x8(%ebp),%eax
 8049a97:	89 45 ec             	mov    %eax,-0x14(%ebp)
 8049a9a:	8b 45 0c             	mov    0xc(%ebp),%eax
 8049a9d:	8d 50 ff             	lea    -0x1(%eax),%edx
 8049aa0:	8b 45 08             	mov    0x8(%ebp),%eax
 8049aa3:	01 d0                	add    %edx,%eax
 8049aa5:	89 45 f0             	mov    %eax,-0x10(%ebp)
 8049aa8:	c7 45 f4 00 00 00 00 	movl   $0x0,-0xc(%ebp)
 8049aaf:	83 7d 08 00          	cmpl   $0x0,0x8(%ebp)
 8049ab3:	74 06                	je     8049abb <vsnprintf+0x2d>
 8049ab5:	83 7d 0c 00          	cmpl   $0x0,0xc(%ebp)
 8049ab9:	7f 07                	jg     8049ac2 <vsnprintf+0x34>
 8049abb:	b8 fd ff ff ff       	mov    $0xfffffffd,%eax
 8049ac0:	eb 2a                	jmp    8049aec <vsnprintf+0x5e>
 8049ac2:	8b 45 14             	mov    0x14(%ebp),%eax
 8049ac5:	89 44 24 0c          	mov    %eax,0xc(%esp)
 8049ac9:	8b 45 10             	mov    0x10(%ebp),%eax
 8049acc:	89 44 24 08          	mov    %eax,0x8(%esp)
 8049ad0:	8d 45 ec             	lea    -0x14(%ebp),%eax
 8049ad3:	89 44 24 04          	mov    %eax,0x4(%esp)
 8049ad7:	c7 04 24 59 9a 04 08 	movl   $0x8049a59,(%esp)
 8049ade:	e8 45 fb ff ff       	call   8049628 <vprintfmt>
 8049ae3:	8b 45 ec             	mov    -0x14(%ebp),%eax
 8049ae6:	c6 00 00             	movb   $0x0,(%eax)
 8049ae9:	8b 45 f4             	mov    -0xc(%ebp),%eax
 8049aec:	c9                   	leave  
 8049aed:	c3                   	ret    

08049aee <snprintf>:
 8049aee:	55                   	push   %ebp
 8049aef:	89 e5                	mov    %esp,%ebp
 8049af1:	83 ec 28             	sub    $0x28,%esp
 8049af4:	8d 45 14             	lea    0x14(%ebp),%eax
 8049af7:	89 45 f0             	mov    %eax,-0x10(%ebp)
 8049afa:	8b 45 f0             	mov    -0x10(%ebp),%eax
 8049afd:	89 44 24 0c          	mov    %eax,0xc(%esp)
 8049b01:	8b 45 10             	mov    0x10(%ebp),%eax
 8049b04:	89 44 24 08          	mov    %eax,0x8(%esp)
 8049b08:	8b 45 0c             	mov    0xc(%ebp),%eax
 8049b0b:	89 44 24 04          	mov    %eax,0x4(%esp)
 8049b0f:	8b 45 08             	mov    0x8(%ebp),%eax
 8049b12:	89 04 24             	mov    %eax,(%esp)
 8049b15:	e8 74 ff ff ff       	call   8049a8e <vsnprintf>
 8049b1a:	89 45 f4             	mov    %eax,-0xc(%ebp)
 8049b1d:	8b 45 f4             	mov    -0xc(%ebp),%eax
 8049b20:	c9                   	leave  
 8049b21:	c3                   	ret    

08049b22 <out_byte>:
 8049b22:	55                   	push   %ebp
 8049b23:	89 e5                	mov    %esp,%ebp
 8049b25:	83 ec 08             	sub    $0x8,%esp
 8049b28:	8b 55 08             	mov    0x8(%ebp),%edx
 8049b2b:	8b 45 0c             	mov    0xc(%ebp),%eax
 8049b2e:	66 89 55 fc          	mov    %dx,-0x4(%ebp)
 8049b32:	88 45 f8             	mov    %al,-0x8(%ebp)
 8049b35:	0f b7 55 fc          	movzwl -0x4(%ebp),%edx
 8049b39:	0f b6 45 f8          	movzbl -0x8(%ebp),%eax
 8049b3d:	ee                   	out    %al,(%dx)
 8049b3e:	c9                   	leave  
 8049b3f:	c3                   	ret    

08049b40 <init_serial>:
 8049b40:	55                   	push   %ebp
 8049b41:	89 e5                	mov    %esp,%ebp
 8049b43:	83 ec 40             	sub    $0x40,%esp
 8049b46:	c7 45 fc f9 03 00 00 	movl   $0x3f9,-0x4(%ebp)
 8049b4d:	c6 45 fb 00          	movb   $0x0,-0x5(%ebp)
 8049b51:	0f b6 45 fb          	movzbl -0x5(%ebp),%eax
 8049b55:	8b 55 fc             	mov    -0x4(%ebp),%edx
 8049b58:	ee                   	out    %al,(%dx)
 8049b59:	c7 45 f4 fb 03 00 00 	movl   $0x3fb,-0xc(%ebp)
 8049b60:	c6 45 f3 80          	movb   $0x80,-0xd(%ebp)
 8049b64:	0f b6 45 f3          	movzbl -0xd(%ebp),%eax
 8049b68:	8b 55 f4             	mov    -0xc(%ebp),%edx
 8049b6b:	ee                   	out    %al,(%dx)
 8049b6c:	c7 45 ec f8 03 00 00 	movl   $0x3f8,-0x14(%ebp)
 8049b73:	c6 45 eb 01          	movb   $0x1,-0x15(%ebp)
 8049b77:	0f b6 45 eb          	movzbl -0x15(%ebp),%eax
 8049b7b:	8b 55 ec             	mov    -0x14(%ebp),%edx
 8049b7e:	ee                   	out    %al,(%dx)
 8049b7f:	c7 45 e4 f9 03 00 00 	movl   $0x3f9,-0x1c(%ebp)
 8049b86:	c6 45 e3 00          	movb   $0x0,-0x1d(%ebp)
 8049b8a:	0f b6 45 e3          	movzbl -0x1d(%ebp),%eax
 8049b8e:	8b 55 e4             	mov    -0x1c(%ebp),%edx
 8049b91:	ee                   	out    %al,(%dx)
 8049b92:	c7 45 dc fb 03 00 00 	movl   $0x3fb,-0x24(%ebp)
 8049b99:	c6 45 db 03          	movb   $0x3,-0x25(%ebp)
 8049b9d:	0f b6 45 db          	movzbl -0x25(%ebp),%eax
 8049ba1:	8b 55 dc             	mov    -0x24(%ebp),%edx
 8049ba4:	ee                   	out    %al,(%dx)
 8049ba5:	c7 45 d4 fa 03 00 00 	movl   $0x3fa,-0x2c(%ebp)
 8049bac:	c6 45 d3 c7          	movb   $0xc7,-0x2d(%ebp)
 8049bb0:	0f b6 45 d3          	movzbl -0x2d(%ebp),%eax
 8049bb4:	8b 55 d4             	mov    -0x2c(%ebp),%edx
 8049bb7:	ee                   	out    %al,(%dx)
 8049bb8:	c7 45 cc fc 03 00 00 	movl   $0x3fc,-0x34(%ebp)
 8049bbf:	c6 45 cb 0b          	movb   $0xb,-0x35(%ebp)
 8049bc3:	0f b6 45 cb          	movzbl -0x35(%ebp),%eax
 8049bc7:	8b 55 cc             	mov    -0x34(%ebp),%edx
 8049bca:	ee                   	out    %al,(%dx)
 8049bcb:	c9                   	leave  
 8049bcc:	c3                   	ret    

08049bcd <serial_idle>:
 8049bcd:	55                   	push   %ebp
 8049bce:	89 e5                	mov    %esp,%ebp
 8049bd0:	83 ec 10             	sub    $0x10,%esp
 8049bd3:	c7 45 fc fd 03 00 00 	movl   $0x3fd,-0x4(%ebp)
 8049bda:	8b 45 fc             	mov    -0x4(%ebp),%eax
 8049bdd:	89 c2                	mov    %eax,%edx
 8049bdf:	ec                   	in     (%dx),%al
 8049be0:	88 45 fb             	mov    %al,-0x5(%ebp)
 8049be3:	0f b6 45 fb          	movzbl -0x5(%ebp),%eax
 8049be7:	0f b6 c0             	movzbl %al,%eax
 8049bea:	83 e0 20             	and    $0x20,%eax
 8049bed:	85 c0                	test   %eax,%eax
 8049bef:	0f 95 c0             	setne  %al
 8049bf2:	0f b6 c0             	movzbl %al,%eax
 8049bf5:	c9                   	leave  
 8049bf6:	c3                   	ret    

08049bf7 <serial_printc>:
 8049bf7:	55                   	push   %ebp
 8049bf8:	89 e5                	mov    %esp,%ebp
 8049bfa:	83 ec 0c             	sub    $0xc,%esp
 8049bfd:	8b 45 08             	mov    0x8(%ebp),%eax
 8049c00:	88 45 fc             	mov    %al,-0x4(%ebp)
 8049c03:	90                   	nop
 8049c04:	e8 c4 ff ff ff       	call   8049bcd <serial_idle>
 8049c09:	83 f8 01             	cmp    $0x1,%eax
 8049c0c:	75 f6                	jne    8049c04 <serial_printc+0xd>
 8049c0e:	0f be 45 fc          	movsbl -0x4(%ebp),%eax
 8049c12:	89 44 24 04          	mov    %eax,0x4(%esp)
 8049c16:	c7 04 24 f8 03 00 00 	movl   $0x3f8,(%esp)
 8049c1d:	e8 00 ff ff ff       	call   8049b22 <out_byte>
 8049c22:	c9                   	leave  
 8049c23:	c3                   	ret    

08049c24 <strlen>:
 8049c24:	55                   	push   %ebp
 8049c25:	89 e5                	mov    %esp,%ebp
 8049c27:	83 ec 10             	sub    $0x10,%esp
 8049c2a:	c7 45 fc 00 00 00 00 	movl   $0x0,-0x4(%ebp)
 8049c31:	eb 08                	jmp    8049c3b <strlen+0x17>
 8049c33:	83 45 fc 01          	addl   $0x1,-0x4(%ebp)
 8049c37:	83 45 08 01          	addl   $0x1,0x8(%ebp)
 8049c3b:	8b 45 08             	mov    0x8(%ebp),%eax
 8049c3e:	0f b6 00             	movzbl (%eax),%eax
 8049c41:	84 c0                	test   %al,%al
 8049c43:	75 ee                	jne    8049c33 <strlen+0xf>
 8049c45:	8b 45 fc             	mov    -0x4(%ebp),%eax
 8049c48:	c9                   	leave  
 8049c49:	c3                   	ret    

08049c4a <strnlen>:
 8049c4a:	55                   	push   %ebp
 8049c4b:	89 e5                	mov    %esp,%ebp
 8049c4d:	83 ec 10             	sub    $0x10,%esp
 8049c50:	c7 45 fc 00 00 00 00 	movl   $0x0,-0x4(%ebp)
 8049c57:	eb 0c                	jmp    8049c65 <strnlen+0x1b>
 8049c59:	83 45 fc 01          	addl   $0x1,-0x4(%ebp)
 8049c5d:	83 45 08 01          	addl   $0x1,0x8(%ebp)
 8049c61:	83 6d 0c 01          	subl   $0x1,0xc(%ebp)
 8049c65:	83 7d 0c 00          	cmpl   $0x0,0xc(%ebp)
 8049c69:	74 0a                	je     8049c75 <strnlen+0x2b>
 8049c6b:	8b 45 08             	mov    0x8(%ebp),%eax
 8049c6e:	0f b6 00             	movzbl (%eax),%eax
 8049c71:	84 c0                	test   %al,%al
 8049c73:	75 e4                	jne    8049c59 <strnlen+0xf>
 8049c75:	8b 45 fc             	mov    -0x4(%ebp),%eax
 8049c78:	c9                   	leave  
 8049c79:	c3                   	ret    

08049c7a <strcpy>:
 8049c7a:	55                   	push   %ebp
 8049c7b:	89 e5                	mov    %esp,%ebp
 8049c7d:	83 ec 10             	sub    $0x10,%esp
 8049c80:	8b 45 08             	mov    0x8(%ebp),%eax
 8049c83:	89 45 fc             	mov    %eax,-0x4(%ebp)
 8049c86:	90                   	nop
 8049c87:	8b 45 08             	mov    0x8(%ebp),%eax
 8049c8a:	8d 50 01             	lea    0x1(%eax),%edx
 8049c8d:	89 55 08             	mov    %edx,0x8(%ebp)
 8049c90:	8b 55 0c             	mov    0xc(%ebp),%edx
 8049c93:	8d 4a 01             	lea    0x1(%edx),%ecx
 8049c96:	89 4d 0c             	mov    %ecx,0xc(%ebp)
 8049c99:	0f b6 12             	movzbl (%edx),%edx
 8049c9c:	88 10                	mov    %dl,(%eax)
 8049c9e:	0f b6 00             	movzbl (%eax),%eax
 8049ca1:	84 c0                	test   %al,%al
 8049ca3:	75 e2                	jne    8049c87 <strcpy+0xd>
 8049ca5:	8b 45 fc             	mov    -0x4(%ebp),%eax
 8049ca8:	c9                   	leave  
 8049ca9:	c3                   	ret    

08049caa <strcat>:
 8049caa:	55                   	push   %ebp
 8049cab:	89 e5                	mov    %esp,%ebp
 8049cad:	83 ec 18             	sub    $0x18,%esp
 8049cb0:	8b 45 08             	mov    0x8(%ebp),%eax
 8049cb3:	89 04 24             	mov    %eax,(%esp)
 8049cb6:	e8 69 ff ff ff       	call   8049c24 <strlen>
 8049cbb:	89 45 fc             	mov    %eax,-0x4(%ebp)
 8049cbe:	8b 55 fc             	mov    -0x4(%ebp),%edx
 8049cc1:	8b 45 08             	mov    0x8(%ebp),%eax
 8049cc4:	01 c2                	add    %eax,%edx
 8049cc6:	8b 45 0c             	mov    0xc(%ebp),%eax
 8049cc9:	89 44 24 04          	mov    %eax,0x4(%esp)
 8049ccd:	89 14 24             	mov    %edx,(%esp)
 8049cd0:	e8 a5 ff ff ff       	call   8049c7a <strcpy>
 8049cd5:	8b 45 08             	mov    0x8(%ebp),%eax
 8049cd8:	c9                   	leave  
 8049cd9:	c3                   	ret    

08049cda <strncpy>:
 8049cda:	55                   	push   %ebp
 8049cdb:	89 e5                	mov    %esp,%ebp
 8049cdd:	83 ec 10             	sub    $0x10,%esp
 8049ce0:	8b 45 08             	mov    0x8(%ebp),%eax
 8049ce3:	89 45 f8             	mov    %eax,-0x8(%ebp)
 8049ce6:	c7 45 fc 00 00 00 00 	movl   $0x0,-0x4(%ebp)
 8049ced:	eb 23                	jmp    8049d12 <strncpy+0x38>
 8049cef:	8b 45 08             	mov    0x8(%ebp),%eax
 8049cf2:	8d 50 01             	lea    0x1(%eax),%edx
 8049cf5:	89 55 08             	mov    %edx,0x8(%ebp)
 8049cf8:	8b 55 0c             	mov    0xc(%ebp),%edx
 8049cfb:	0f b6 12             	movzbl (%edx),%edx
 8049cfe:	88 10                	mov    %dl,(%eax)
 8049d00:	8b 45 0c             	mov    0xc(%ebp),%eax
 8049d03:	0f b6 00             	movzbl (%eax),%eax
 8049d06:	84 c0                	test   %al,%al
 8049d08:	74 04                	je     8049d0e <strncpy+0x34>
 8049d0a:	83 45 0c 01          	addl   $0x1,0xc(%ebp)
 8049d0e:	83 45 fc 01          	addl   $0x1,-0x4(%ebp)
 8049d12:	8b 45 fc             	mov    -0x4(%ebp),%eax
 8049d15:	3b 45 10             	cmp    0x10(%ebp),%eax
 8049d18:	72 d5                	jb     8049cef <strncpy+0x15>
 8049d1a:	8b 45 f8             	mov    -0x8(%ebp),%eax
 8049d1d:	c9                   	leave  
 8049d1e:	c3                   	ret    

08049d1f <strlcpy>:
 8049d1f:	55                   	push   %ebp
 8049d20:	89 e5                	mov    %esp,%ebp
 8049d22:	83 ec 10             	sub    $0x10,%esp
 8049d25:	8b 45 08             	mov    0x8(%ebp),%eax
 8049d28:	89 45 fc             	mov    %eax,-0x4(%ebp)
 8049d2b:	83 7d 10 00          	cmpl   $0x0,0x10(%ebp)
 8049d2f:	74 33                	je     8049d64 <strlcpy+0x45>
 8049d31:	eb 17                	jmp    8049d4a <strlcpy+0x2b>
 8049d33:	8b 45 08             	mov    0x8(%ebp),%eax
 8049d36:	8d 50 01             	lea    0x1(%eax),%edx
 8049d39:	89 55 08             	mov    %edx,0x8(%ebp)
 8049d3c:	8b 55 0c             	mov    0xc(%ebp),%edx
 8049d3f:	8d 4a 01             	lea    0x1(%edx),%ecx
 8049d42:	89 4d 0c             	mov    %ecx,0xc(%ebp)
 8049d45:	0f b6 12             	movzbl (%edx),%edx
 8049d48:	88 10                	mov    %dl,(%eax)
 8049d4a:	83 6d 10 01          	subl   $0x1,0x10(%ebp)
 8049d4e:	83 7d 10 00          	cmpl   $0x0,0x10(%ebp)
 8049d52:	74 0a                	je     8049d5e <strlcpy+0x3f>
 8049d54:	8b 45 0c             	mov    0xc(%ebp),%eax
 8049d57:	0f b6 00             	movzbl (%eax),%eax
 8049d5a:	84 c0                	test   %al,%al
 8049d5c:	75 d5                	jne    8049d33 <strlcpy+0x14>
 8049d5e:	8b 45 08             	mov    0x8(%ebp),%eax
 8049d61:	c6 00 00             	movb   $0x0,(%eax)
 8049d64:	8b 55 08             	mov    0x8(%ebp),%edx
 8049d67:	8b 45 fc             	mov    -0x4(%ebp),%eax
 8049d6a:	29 c2                	sub    %eax,%edx
 8049d6c:	89 d0                	mov    %edx,%eax
 8049d6e:	c9                   	leave  
 8049d6f:	c3                   	ret    

08049d70 <strcmp>:
 8049d70:	55                   	push   %ebp
 8049d71:	89 e5                	mov    %esp,%ebp
 8049d73:	eb 08                	jmp    8049d7d <strcmp+0xd>
 8049d75:	83 45 08 01          	addl   $0x1,0x8(%ebp)
 8049d79:	83 45 0c 01          	addl   $0x1,0xc(%ebp)
 8049d7d:	8b 45 08             	mov    0x8(%ebp),%eax
 8049d80:	0f b6 00             	movzbl (%eax),%eax
 8049d83:	84 c0                	test   %al,%al
 8049d85:	74 10                	je     8049d97 <strcmp+0x27>
 8049d87:	8b 45 08             	mov    0x8(%ebp),%eax
 8049d8a:	0f b6 10             	movzbl (%eax),%edx
 8049d8d:	8b 45 0c             	mov    0xc(%ebp),%eax
 8049d90:	0f b6 00             	movzbl (%eax),%eax
 8049d93:	38 c2                	cmp    %al,%dl
 8049d95:	74 de                	je     8049d75 <strcmp+0x5>
 8049d97:	8b 45 08             	mov    0x8(%ebp),%eax
 8049d9a:	0f b6 00             	movzbl (%eax),%eax
 8049d9d:	0f b6 d0             	movzbl %al,%edx
 8049da0:	8b 45 0c             	mov    0xc(%ebp),%eax
 8049da3:	0f b6 00             	movzbl (%eax),%eax
 8049da6:	0f b6 c0             	movzbl %al,%eax
 8049da9:	29 c2                	sub    %eax,%edx
 8049dab:	89 d0                	mov    %edx,%eax
 8049dad:	5d                   	pop    %ebp
 8049dae:	c3                   	ret    

08049daf <strncmp>:
 8049daf:	55                   	push   %ebp
 8049db0:	89 e5                	mov    %esp,%ebp
 8049db2:	eb 0c                	jmp    8049dc0 <strncmp+0x11>
 8049db4:	83 6d 10 01          	subl   $0x1,0x10(%ebp)
 8049db8:	83 45 08 01          	addl   $0x1,0x8(%ebp)
 8049dbc:	83 45 0c 01          	addl   $0x1,0xc(%ebp)
 8049dc0:	83 7d 10 00          	cmpl   $0x0,0x10(%ebp)
 8049dc4:	74 1a                	je     8049de0 <strncmp+0x31>
 8049dc6:	8b 45 08             	mov    0x8(%ebp),%eax
 8049dc9:	0f b6 00             	movzbl (%eax),%eax
 8049dcc:	84 c0                	test   %al,%al
 8049dce:	74 10                	je     8049de0 <strncmp+0x31>
 8049dd0:	8b 45 08             	mov    0x8(%ebp),%eax
 8049dd3:	0f b6 10             	movzbl (%eax),%edx
 8049dd6:	8b 45 0c             	mov    0xc(%ebp),%eax
 8049dd9:	0f b6 00             	movzbl (%eax),%eax
 8049ddc:	38 c2                	cmp    %al,%dl
 8049dde:	74 d4                	je     8049db4 <strncmp+0x5>
 8049de0:	83 7d 10 00          	cmpl   $0x0,0x10(%ebp)
 8049de4:	75 07                	jne    8049ded <strncmp+0x3e>
 8049de6:	b8 00 00 00 00       	mov    $0x0,%eax
 8049deb:	eb 16                	jmp    8049e03 <strncmp+0x54>
 8049ded:	8b 45 08             	mov    0x8(%ebp),%eax
 8049df0:	0f b6 00             	movzbl (%eax),%eax
 8049df3:	0f b6 d0             	movzbl %al,%edx
 8049df6:	8b 45 0c             	mov    0xc(%ebp),%eax
 8049df9:	0f b6 00             	movzbl (%eax),%eax
 8049dfc:	0f b6 c0             	movzbl %al,%eax
 8049dff:	29 c2                	sub    %eax,%edx
 8049e01:	89 d0                	mov    %edx,%eax
 8049e03:	5d                   	pop    %ebp
 8049e04:	c3                   	ret    

08049e05 <strchr>:
 8049e05:	55                   	push   %ebp
 8049e06:	89 e5                	mov    %esp,%ebp
 8049e08:	83 ec 04             	sub    $0x4,%esp
 8049e0b:	8b 45 0c             	mov    0xc(%ebp),%eax
 8049e0e:	88 45 fc             	mov    %al,-0x4(%ebp)
 8049e11:	eb 14                	jmp    8049e27 <strchr+0x22>
 8049e13:	8b 45 08             	mov    0x8(%ebp),%eax
 8049e16:	0f b6 00             	movzbl (%eax),%eax
 8049e19:	3a 45 fc             	cmp    -0x4(%ebp),%al
 8049e1c:	75 05                	jne    8049e23 <strchr+0x1e>
 8049e1e:	8b 45 08             	mov    0x8(%ebp),%eax
 8049e21:	eb 13                	jmp    8049e36 <strchr+0x31>
 8049e23:	83 45 08 01          	addl   $0x1,0x8(%ebp)
 8049e27:	8b 45 08             	mov    0x8(%ebp),%eax
 8049e2a:	0f b6 00             	movzbl (%eax),%eax
 8049e2d:	84 c0                	test   %al,%al
 8049e2f:	75 e2                	jne    8049e13 <strchr+0xe>
 8049e31:	b8 00 00 00 00       	mov    $0x0,%eax
 8049e36:	c9                   	leave  
 8049e37:	c3                   	ret    

08049e38 <strfind>:
 8049e38:	55                   	push   %ebp
 8049e39:	89 e5                	mov    %esp,%ebp
 8049e3b:	83 ec 04             	sub    $0x4,%esp
 8049e3e:	8b 45 0c             	mov    0xc(%ebp),%eax
 8049e41:	88 45 fc             	mov    %al,-0x4(%ebp)
 8049e44:	eb 11                	jmp    8049e57 <strfind+0x1f>
 8049e46:	8b 45 08             	mov    0x8(%ebp),%eax
 8049e49:	0f b6 00             	movzbl (%eax),%eax
 8049e4c:	3a 45 fc             	cmp    -0x4(%ebp),%al
 8049e4f:	75 02                	jne    8049e53 <strfind+0x1b>
 8049e51:	eb 0e                	jmp    8049e61 <strfind+0x29>
 8049e53:	83 45 08 01          	addl   $0x1,0x8(%ebp)
 8049e57:	8b 45 08             	mov    0x8(%ebp),%eax
 8049e5a:	0f b6 00             	movzbl (%eax),%eax
 8049e5d:	84 c0                	test   %al,%al
 8049e5f:	75 e5                	jne    8049e46 <strfind+0xe>
 8049e61:	8b 45 08             	mov    0x8(%ebp),%eax
 8049e64:	c9                   	leave  
 8049e65:	c3                   	ret    

08049e66 <memset>:
 8049e66:	55                   	push   %ebp
 8049e67:	89 e5                	mov    %esp,%ebp
 8049e69:	57                   	push   %edi
 8049e6a:	83 7d 10 00          	cmpl   $0x0,0x10(%ebp)
 8049e6e:	75 05                	jne    8049e75 <memset+0xf>
 8049e70:	8b 45 08             	mov    0x8(%ebp),%eax
 8049e73:	eb 5c                	jmp    8049ed1 <memset+0x6b>
 8049e75:	8b 45 08             	mov    0x8(%ebp),%eax
 8049e78:	83 e0 03             	and    $0x3,%eax
 8049e7b:	85 c0                	test   %eax,%eax
 8049e7d:	75 41                	jne    8049ec0 <memset+0x5a>
 8049e7f:	8b 45 10             	mov    0x10(%ebp),%eax
 8049e82:	83 e0 03             	and    $0x3,%eax
 8049e85:	85 c0                	test   %eax,%eax
 8049e87:	75 37                	jne    8049ec0 <memset+0x5a>
 8049e89:	81 65 0c ff 00 00 00 	andl   $0xff,0xc(%ebp)
 8049e90:	8b 45 0c             	mov    0xc(%ebp),%eax
 8049e93:	c1 e0 18             	shl    $0x18,%eax
 8049e96:	89 c2                	mov    %eax,%edx
 8049e98:	8b 45 0c             	mov    0xc(%ebp),%eax
 8049e9b:	c1 e0 10             	shl    $0x10,%eax
 8049e9e:	09 c2                	or     %eax,%edx
 8049ea0:	8b 45 0c             	mov    0xc(%ebp),%eax
 8049ea3:	c1 e0 08             	shl    $0x8,%eax
 8049ea6:	09 d0                	or     %edx,%eax
 8049ea8:	09 45 0c             	or     %eax,0xc(%ebp)
 8049eab:	8b 45 10             	mov    0x10(%ebp),%eax
 8049eae:	c1 e8 02             	shr    $0x2,%eax
 8049eb1:	89 c1                	mov    %eax,%ecx
 8049eb3:	8b 55 08             	mov    0x8(%ebp),%edx
 8049eb6:	8b 45 0c             	mov    0xc(%ebp),%eax
 8049eb9:	89 d7                	mov    %edx,%edi
 8049ebb:	fc                   	cld    
 8049ebc:	f3 ab                	rep stos %eax,%es:(%edi)
 8049ebe:	eb 0e                	jmp    8049ece <memset+0x68>
 8049ec0:	8b 55 08             	mov    0x8(%ebp),%edx
 8049ec3:	8b 45 0c             	mov    0xc(%ebp),%eax
 8049ec6:	8b 4d 10             	mov    0x10(%ebp),%ecx
 8049ec9:	89 d7                	mov    %edx,%edi
 8049ecb:	fc                   	cld    
 8049ecc:	f3 aa                	rep stos %al,%es:(%edi)
 8049ece:	8b 45 08             	mov    0x8(%ebp),%eax
 8049ed1:	5f                   	pop    %edi
 8049ed2:	5d                   	pop    %ebp
 8049ed3:	c3                   	ret    

08049ed4 <memmove>:
 8049ed4:	55                   	push   %ebp
 8049ed5:	89 e5                	mov    %esp,%ebp
 8049ed7:	57                   	push   %edi
 8049ed8:	56                   	push   %esi
 8049ed9:	53                   	push   %ebx
 8049eda:	83 ec 10             	sub    $0x10,%esp
 8049edd:	8b 45 0c             	mov    0xc(%ebp),%eax
 8049ee0:	89 45 f0             	mov    %eax,-0x10(%ebp)
 8049ee3:	8b 45 08             	mov    0x8(%ebp),%eax
 8049ee6:	89 45 ec             	mov    %eax,-0x14(%ebp)
 8049ee9:	8b 45 f0             	mov    -0x10(%ebp),%eax
 8049eec:	3b 45 ec             	cmp    -0x14(%ebp),%eax
 8049eef:	73 6d                	jae    8049f5e <memmove+0x8a>
 8049ef1:	8b 45 10             	mov    0x10(%ebp),%eax
 8049ef4:	8b 55 f0             	mov    -0x10(%ebp),%edx
 8049ef7:	01 d0                	add    %edx,%eax
 8049ef9:	3b 45 ec             	cmp    -0x14(%ebp),%eax
 8049efc:	76 60                	jbe    8049f5e <memmove+0x8a>
 8049efe:	8b 45 10             	mov    0x10(%ebp),%eax
 8049f01:	01 45 f0             	add    %eax,-0x10(%ebp)
 8049f04:	8b 45 10             	mov    0x10(%ebp),%eax
 8049f07:	01 45 ec             	add    %eax,-0x14(%ebp)
 8049f0a:	8b 45 f0             	mov    -0x10(%ebp),%eax
 8049f0d:	83 e0 03             	and    $0x3,%eax
 8049f10:	85 c0                	test   %eax,%eax
 8049f12:	75 2f                	jne    8049f43 <memmove+0x6f>
 8049f14:	8b 45 ec             	mov    -0x14(%ebp),%eax
 8049f17:	83 e0 03             	and    $0x3,%eax
 8049f1a:	85 c0                	test   %eax,%eax
 8049f1c:	75 25                	jne    8049f43 <memmove+0x6f>
 8049f1e:	8b 45 10             	mov    0x10(%ebp),%eax
 8049f21:	83 e0 03             	and    $0x3,%eax
 8049f24:	85 c0                	test   %eax,%eax
 8049f26:	75 1b                	jne    8049f43 <memmove+0x6f>
 8049f28:	8b 45 ec             	mov    -0x14(%ebp),%eax
 8049f2b:	83 e8 04             	sub    $0x4,%eax
 8049f2e:	8b 55 f0             	mov    -0x10(%ebp),%edx
 8049f31:	83 ea 04             	sub    $0x4,%edx
 8049f34:	8b 4d 10             	mov    0x10(%ebp),%ecx
 8049f37:	c1 e9 02             	shr    $0x2,%ecx
 8049f3a:	89 c7                	mov    %eax,%edi
 8049f3c:	89 d6                	mov    %edx,%esi
 8049f3e:	fd                   	std    
 8049f3f:	f3 a5                	rep movsl %ds:(%esi),%es:(%edi)
 8049f41:	eb 18                	jmp    8049f5b <memmove+0x87>
 8049f43:	8b 45 ec             	mov    -0x14(%ebp),%eax
 8049f46:	8d 50 ff             	lea    -0x1(%eax),%edx
 8049f49:	8b 45 f0             	mov    -0x10(%ebp),%eax
 8049f4c:	8d 58 ff             	lea    -0x1(%eax),%ebx
 8049f4f:	8b 45 10             	mov    0x10(%ebp),%eax
 8049f52:	89 d7                	mov    %edx,%edi
 8049f54:	89 de                	mov    %ebx,%esi
 8049f56:	89 c1                	mov    %eax,%ecx
 8049f58:	fd                   	std    
 8049f59:	f3 a4                	rep movsb %ds:(%esi),%es:(%edi)
 8049f5b:	fc                   	cld    
 8049f5c:	eb 45                	jmp    8049fa3 <memmove+0xcf>
 8049f5e:	8b 45 f0             	mov    -0x10(%ebp),%eax
 8049f61:	83 e0 03             	and    $0x3,%eax
 8049f64:	85 c0                	test   %eax,%eax
 8049f66:	75 2b                	jne    8049f93 <memmove+0xbf>
 8049f68:	8b 45 ec             	mov    -0x14(%ebp),%eax
 8049f6b:	83 e0 03             	and    $0x3,%eax
 8049f6e:	85 c0                	test   %eax,%eax
 8049f70:	75 21                	jne    8049f93 <memmove+0xbf>
 8049f72:	8b 45 10             	mov    0x10(%ebp),%eax
 8049f75:	83 e0 03             	and    $0x3,%eax
 8049f78:	85 c0                	test   %eax,%eax
 8049f7a:	75 17                	jne    8049f93 <memmove+0xbf>
 8049f7c:	8b 45 10             	mov    0x10(%ebp),%eax
 8049f7f:	c1 e8 02             	shr    $0x2,%eax
 8049f82:	89 c1                	mov    %eax,%ecx
 8049f84:	8b 45 ec             	mov    -0x14(%ebp),%eax
 8049f87:	8b 55 f0             	mov    -0x10(%ebp),%edx
 8049f8a:	89 c7                	mov    %eax,%edi
 8049f8c:	89 d6                	mov    %edx,%esi
 8049f8e:	fc                   	cld    
 8049f8f:	f3 a5                	rep movsl %ds:(%esi),%es:(%edi)
 8049f91:	eb 10                	jmp    8049fa3 <memmove+0xcf>
 8049f93:	8b 45 ec             	mov    -0x14(%ebp),%eax
 8049f96:	8b 55 f0             	mov    -0x10(%ebp),%edx
 8049f99:	8b 4d 10             	mov    0x10(%ebp),%ecx
 8049f9c:	89 c7                	mov    %eax,%edi
 8049f9e:	89 d6                	mov    %edx,%esi
 8049fa0:	fc                   	cld    
 8049fa1:	f3 a4                	rep movsb %ds:(%esi),%es:(%edi)
 8049fa3:	8b 45 08             	mov    0x8(%ebp),%eax
 8049fa6:	83 c4 10             	add    $0x10,%esp
 8049fa9:	5b                   	pop    %ebx
 8049faa:	5e                   	pop    %esi
 8049fab:	5f                   	pop    %edi
 8049fac:	5d                   	pop    %ebp
 8049fad:	c3                   	ret    

08049fae <memcpy>:
 8049fae:	55                   	push   %ebp
 8049faf:	89 e5                	mov    %esp,%ebp
 8049fb1:	83 ec 0c             	sub    $0xc,%esp
 8049fb4:	8b 45 10             	mov    0x10(%ebp),%eax
 8049fb7:	89 44 24 08          	mov    %eax,0x8(%esp)
 8049fbb:	8b 45 0c             	mov    0xc(%ebp),%eax
 8049fbe:	89 44 24 04          	mov    %eax,0x4(%esp)
 8049fc2:	8b 45 08             	mov    0x8(%ebp),%eax
 8049fc5:	89 04 24             	mov    %eax,(%esp)
 8049fc8:	e8 07 ff ff ff       	call   8049ed4 <memmove>
 8049fcd:	c9                   	leave  
 8049fce:	c3                   	ret    

08049fcf <memcmp>:
 8049fcf:	55                   	push   %ebp
 8049fd0:	89 e5                	mov    %esp,%ebp
 8049fd2:	83 ec 10             	sub    $0x10,%esp
 8049fd5:	8b 45 08             	mov    0x8(%ebp),%eax
 8049fd8:	89 45 fc             	mov    %eax,-0x4(%ebp)
 8049fdb:	8b 45 0c             	mov    0xc(%ebp),%eax
 8049fde:	89 45 f8             	mov    %eax,-0x8(%ebp)
 8049fe1:	eb 30                	jmp    804a013 <memcmp+0x44>
 8049fe3:	8b 45 fc             	mov    -0x4(%ebp),%eax
 8049fe6:	0f b6 10             	movzbl (%eax),%edx
 8049fe9:	8b 45 f8             	mov    -0x8(%ebp),%eax
 8049fec:	0f b6 00             	movzbl (%eax),%eax
 8049fef:	38 c2                	cmp    %al,%dl
 8049ff1:	74 18                	je     804a00b <memcmp+0x3c>
 8049ff3:	8b 45 fc             	mov    -0x4(%ebp),%eax
 8049ff6:	0f b6 00             	movzbl (%eax),%eax
 8049ff9:	0f b6 d0             	movzbl %al,%edx
 8049ffc:	8b 45 f8             	mov    -0x8(%ebp),%eax
 8049fff:	0f b6 00             	movzbl (%eax),%eax
 804a002:	0f b6 c0             	movzbl %al,%eax
 804a005:	29 c2                	sub    %eax,%edx
 804a007:	89 d0                	mov    %edx,%eax
 804a009:	eb 1a                	jmp    804a025 <memcmp+0x56>
 804a00b:	83 45 fc 01          	addl   $0x1,-0x4(%ebp)
 804a00f:	83 45 f8 01          	addl   $0x1,-0x8(%ebp)
 804a013:	8b 45 10             	mov    0x10(%ebp),%eax
 804a016:	8d 50 ff             	lea    -0x1(%eax),%edx
 804a019:	89 55 10             	mov    %edx,0x10(%ebp)
 804a01c:	85 c0                	test   %eax,%eax
 804a01e:	75 c3                	jne    8049fe3 <memcmp+0x14>
 804a020:	b8 00 00 00 00       	mov    $0x0,%eax
 804a025:	c9                   	leave  
 804a026:	c3                   	ret    

0804a027 <memfind>:
 804a027:	55                   	push   %ebp
 804a028:	89 e5                	mov    %esp,%ebp
 804a02a:	83 ec 10             	sub    $0x10,%esp
 804a02d:	8b 45 10             	mov    0x10(%ebp),%eax
 804a030:	8b 55 08             	mov    0x8(%ebp),%edx
 804a033:	01 d0                	add    %edx,%eax
 804a035:	89 45 fc             	mov    %eax,-0x4(%ebp)
 804a038:	eb 13                	jmp    804a04d <memfind+0x26>
 804a03a:	8b 45 08             	mov    0x8(%ebp),%eax
 804a03d:	0f b6 10             	movzbl (%eax),%edx
 804a040:	8b 45 0c             	mov    0xc(%ebp),%eax
 804a043:	38 c2                	cmp    %al,%dl
 804a045:	75 02                	jne    804a049 <memfind+0x22>
 804a047:	eb 0c                	jmp    804a055 <memfind+0x2e>
 804a049:	83 45 08 01          	addl   $0x1,0x8(%ebp)
 804a04d:	8b 45 08             	mov    0x8(%ebp),%eax
 804a050:	3b 45 fc             	cmp    -0x4(%ebp),%eax
 804a053:	72 e5                	jb     804a03a <memfind+0x13>
 804a055:	8b 45 08             	mov    0x8(%ebp),%eax
 804a058:	c9                   	leave  
 804a059:	c3                   	ret    

0804a05a <strtol>:
 804a05a:	55                   	push   %ebp
 804a05b:	89 e5                	mov    %esp,%ebp
 804a05d:	83 ec 10             	sub    $0x10,%esp
 804a060:	c7 45 fc 00 00 00 00 	movl   $0x0,-0x4(%ebp)
 804a067:	c7 45 f8 00 00 00 00 	movl   $0x0,-0x8(%ebp)
 804a06e:	eb 04                	jmp    804a074 <strtol+0x1a>
 804a070:	83 45 08 01          	addl   $0x1,0x8(%ebp)
 804a074:	8b 45 08             	mov    0x8(%ebp),%eax
 804a077:	0f b6 00             	movzbl (%eax),%eax
 804a07a:	3c 20                	cmp    $0x20,%al
 804a07c:	74 f2                	je     804a070 <strtol+0x16>
 804a07e:	8b 45 08             	mov    0x8(%ebp),%eax
 804a081:	0f b6 00             	movzbl (%eax),%eax
 804a084:	3c 09                	cmp    $0x9,%al
 804a086:	74 e8                	je     804a070 <strtol+0x16>
 804a088:	8b 45 08             	mov    0x8(%ebp),%eax
 804a08b:	0f b6 00             	movzbl (%eax),%eax
 804a08e:	3c 2b                	cmp    $0x2b,%al
 804a090:	75 06                	jne    804a098 <strtol+0x3e>
 804a092:	83 45 08 01          	addl   $0x1,0x8(%ebp)
 804a096:	eb 15                	jmp    804a0ad <strtol+0x53>
 804a098:	8b 45 08             	mov    0x8(%ebp),%eax
 804a09b:	0f b6 00             	movzbl (%eax),%eax
 804a09e:	3c 2d                	cmp    $0x2d,%al
 804a0a0:	75 0b                	jne    804a0ad <strtol+0x53>
 804a0a2:	83 45 08 01          	addl   $0x1,0x8(%ebp)
 804a0a6:	c7 45 fc 01 00 00 00 	movl   $0x1,-0x4(%ebp)
 804a0ad:	83 7d 10 00          	cmpl   $0x0,0x10(%ebp)
 804a0b1:	74 06                	je     804a0b9 <strtol+0x5f>
 804a0b3:	83 7d 10 10          	cmpl   $0x10,0x10(%ebp)
 804a0b7:	75 24                	jne    804a0dd <strtol+0x83>
 804a0b9:	8b 45 08             	mov    0x8(%ebp),%eax
 804a0bc:	0f b6 00             	movzbl (%eax),%eax
 804a0bf:	3c 30                	cmp    $0x30,%al
 804a0c1:	75 1a                	jne    804a0dd <strtol+0x83>
 804a0c3:	8b 45 08             	mov    0x8(%ebp),%eax
 804a0c6:	83 c0 01             	add    $0x1,%eax
 804a0c9:	0f b6 00             	movzbl (%eax),%eax
 804a0cc:	3c 78                	cmp    $0x78,%al
 804a0ce:	75 0d                	jne    804a0dd <strtol+0x83>
 804a0d0:	83 45 08 02          	addl   $0x2,0x8(%ebp)
 804a0d4:	c7 45 10 10 00 00 00 	movl   $0x10,0x10(%ebp)
 804a0db:	eb 2a                	jmp    804a107 <strtol+0xad>
 804a0dd:	83 7d 10 00          	cmpl   $0x0,0x10(%ebp)
 804a0e1:	75 17                	jne    804a0fa <strtol+0xa0>
 804a0e3:	8b 45 08             	mov    0x8(%ebp),%eax
 804a0e6:	0f b6 00             	movzbl (%eax),%eax
 804a0e9:	3c 30                	cmp    $0x30,%al
 804a0eb:	75 0d                	jne    804a0fa <strtol+0xa0>
 804a0ed:	83 45 08 01          	addl   $0x1,0x8(%ebp)
 804a0f1:	c7 45 10 08 00 00 00 	movl   $0x8,0x10(%ebp)
 804a0f8:	eb 0d                	jmp    804a107 <strtol+0xad>
 804a0fa:	83 7d 10 00          	cmpl   $0x0,0x10(%ebp)
 804a0fe:	75 07                	jne    804a107 <strtol+0xad>
 804a100:	c7 45 10 0a 00 00 00 	movl   $0xa,0x10(%ebp)
 804a107:	8b 45 08             	mov    0x8(%ebp),%eax
 804a10a:	0f b6 00             	movzbl (%eax),%eax
 804a10d:	3c 2f                	cmp    $0x2f,%al
 804a10f:	7e 1b                	jle    804a12c <strtol+0xd2>
 804a111:	8b 45 08             	mov    0x8(%ebp),%eax
 804a114:	0f b6 00             	movzbl (%eax),%eax
 804a117:	3c 39                	cmp    $0x39,%al
 804a119:	7f 11                	jg     804a12c <strtol+0xd2>
 804a11b:	8b 45 08             	mov    0x8(%ebp),%eax
 804a11e:	0f b6 00             	movzbl (%eax),%eax
 804a121:	0f be c0             	movsbl %al,%eax
 804a124:	83 e8 30             	sub    $0x30,%eax
 804a127:	89 45 f4             	mov    %eax,-0xc(%ebp)
 804a12a:	eb 48                	jmp    804a174 <strtol+0x11a>
 804a12c:	8b 45 08             	mov    0x8(%ebp),%eax
 804a12f:	0f b6 00             	movzbl (%eax),%eax
 804a132:	3c 60                	cmp    $0x60,%al
 804a134:	7e 1b                	jle    804a151 <strtol+0xf7>
 804a136:	8b 45 08             	mov    0x8(%ebp),%eax
 804a139:	0f b6 00             	movzbl (%eax),%eax
 804a13c:	3c 7a                	cmp    $0x7a,%al
 804a13e:	7f 11                	jg     804a151 <strtol+0xf7>
 804a140:	8b 45 08             	mov    0x8(%ebp),%eax
 804a143:	0f b6 00             	movzbl (%eax),%eax
 804a146:	0f be c0             	movsbl %al,%eax
 804a149:	83 e8 57             	sub    $0x57,%eax
 804a14c:	89 45 f4             	mov    %eax,-0xc(%ebp)
 804a14f:	eb 23                	jmp    804a174 <strtol+0x11a>
 804a151:	8b 45 08             	mov    0x8(%ebp),%eax
 804a154:	0f b6 00             	movzbl (%eax),%eax
 804a157:	3c 40                	cmp    $0x40,%al
 804a159:	7e 3d                	jle    804a198 <strtol+0x13e>
 804a15b:	8b 45 08             	mov    0x8(%ebp),%eax
 804a15e:	0f b6 00             	movzbl (%eax),%eax
 804a161:	3c 5a                	cmp    $0x5a,%al
 804a163:	7f 33                	jg     804a198 <strtol+0x13e>
 804a165:	8b 45 08             	mov    0x8(%ebp),%eax
 804a168:	0f b6 00             	movzbl (%eax),%eax
 804a16b:	0f be c0             	movsbl %al,%eax
 804a16e:	83 e8 37             	sub    $0x37,%eax
 804a171:	89 45 f4             	mov    %eax,-0xc(%ebp)
 804a174:	8b 45 f4             	mov    -0xc(%ebp),%eax
 804a177:	3b 45 10             	cmp    0x10(%ebp),%eax
 804a17a:	7c 02                	jl     804a17e <strtol+0x124>
 804a17c:	eb 1a                	jmp    804a198 <strtol+0x13e>
 804a17e:	83 45 08 01          	addl   $0x1,0x8(%ebp)
 804a182:	8b 45 f8             	mov    -0x8(%ebp),%eax
 804a185:	0f af 45 10          	imul   0x10(%ebp),%eax
 804a189:	89 c2                	mov    %eax,%edx
 804a18b:	8b 45 f4             	mov    -0xc(%ebp),%eax
 804a18e:	01 d0                	add    %edx,%eax
 804a190:	89 45 f8             	mov    %eax,-0x8(%ebp)
 804a193:	e9 6f ff ff ff       	jmp    804a107 <strtol+0xad>
 804a198:	83 7d 0c 00          	cmpl   $0x0,0xc(%ebp)
 804a19c:	74 08                	je     804a1a6 <strtol+0x14c>
 804a19e:	8b 45 0c             	mov    0xc(%ebp),%eax
 804a1a1:	8b 55 08             	mov    0x8(%ebp),%edx
 804a1a4:	89 10                	mov    %edx,(%eax)
 804a1a6:	83 7d fc 00          	cmpl   $0x0,-0x4(%ebp)
 804a1aa:	74 07                	je     804a1b3 <strtol+0x159>
 804a1ac:	8b 45 f8             	mov    -0x8(%ebp),%eax
 804a1af:	f7 d8                	neg    %eax
 804a1b1:	eb 03                	jmp    804a1b6 <strtol+0x15c>
 804a1b3:	8b 45 f8             	mov    -0x8(%ebp),%eax
 804a1b6:	c9                   	leave  
 804a1b7:	c3                   	ret    

0804a1b8 <out_byte>:
 804a1b8:	55                   	push   %ebp
 804a1b9:	89 e5                	mov    %esp,%ebp
 804a1bb:	83 ec 08             	sub    $0x8,%esp
 804a1be:	8b 55 08             	mov    0x8(%ebp),%edx
 804a1c1:	8b 45 0c             	mov    0xc(%ebp),%eax
 804a1c4:	66 89 55 fc          	mov    %dx,-0x4(%ebp)
 804a1c8:	88 45 f8             	mov    %al,-0x8(%ebp)
 804a1cb:	0f b7 55 fc          	movzwl -0x4(%ebp),%edx
 804a1cf:	0f b6 45 f8          	movzbl -0x8(%ebp),%eax
 804a1d3:	ee                   	out    %al,(%dx)
 804a1d4:	c9                   	leave  
 804a1d5:	c3                   	ret    

0804a1d6 <init_timer>:
 804a1d6:	55                   	push   %ebp
 804a1d7:	89 e5                	mov    %esp,%ebp
 804a1d9:	83 ec 28             	sub    $0x28,%esp
 804a1dc:	c7 45 f4 9b 2e 00 00 	movl   $0x2e9b,-0xc(%ebp)
 804a1e3:	81 7d f4 ff ff 00 00 	cmpl   $0xffff,-0xc(%ebp)
 804a1ea:	7e 24                	jle    804a210 <init_timer+0x3a>
 804a1ec:	c7 44 24 0c fc a8 04 	movl   $0x804a8fc,0xc(%esp)
 804a1f3:	08 
 804a1f4:	c7 44 24 08 0a a9 04 	movl   $0x804a90a,0x8(%esp)
 804a1fb:	08 
 804a1fc:	c7 44 24 04 0d 00 00 	movl   $0xd,0x4(%esp)
 804a203:	00 
 804a204:	c7 04 24 1f a9 04 08 	movl   $0x804a91f,(%esp)
 804a20b:	e8 69 e1 ff ff       	call   8048379 <_panic>
 804a210:	c7 44 24 04 34 00 00 	movl   $0x34,0x4(%esp)
 804a217:	00 
 804a218:	c7 04 24 43 00 00 00 	movl   $0x43,(%esp)
 804a21f:	e8 94 ff ff ff       	call   804a1b8 <out_byte>
 804a224:	8b 45 f4             	mov    -0xc(%ebp),%eax
 804a227:	99                   	cltd   
 804a228:	c1 ea 18             	shr    $0x18,%edx
 804a22b:	01 d0                	add    %edx,%eax
 804a22d:	0f b6 c0             	movzbl %al,%eax
 804a230:	29 d0                	sub    %edx,%eax
 804a232:	0f be c0             	movsbl %al,%eax
 804a235:	89 44 24 04          	mov    %eax,0x4(%esp)
 804a239:	c7 04 24 40 00 00 00 	movl   $0x40,(%esp)
 804a240:	e8 73 ff ff ff       	call   804a1b8 <out_byte>
 804a245:	8b 45 f4             	mov    -0xc(%ebp),%eax
 804a248:	8d 90 ff 00 00 00    	lea    0xff(%eax),%edx
 804a24e:	85 c0                	test   %eax,%eax
 804a250:	0f 48 c2             	cmovs  %edx,%eax
 804a253:	c1 f8 08             	sar    $0x8,%eax
 804a256:	0f be c0             	movsbl %al,%eax
 804a259:	89 44 24 04          	mov    %eax,0x4(%esp)
 804a25d:	c7 04 24 40 00 00 00 	movl   $0x40,(%esp)
 804a264:	e8 4f ff ff ff       	call   804a1b8 <out_byte>
 804a269:	c9                   	leave  
 804a26a:	c3                   	ret    
 804a26b:	66 90                	xchg   %ax,%ax
 804a26d:	66 90                	xchg   %ax,%ax
 804a26f:	90                   	nop

0804a270 <__udivdi3>:
 804a270:	55                   	push   %ebp
 804a271:	57                   	push   %edi
 804a272:	56                   	push   %esi
 804a273:	83 ec 0c             	sub    $0xc,%esp
 804a276:	8b 44 24 28          	mov    0x28(%esp),%eax
 804a27a:	8b 7c 24 1c          	mov    0x1c(%esp),%edi
 804a27e:	8b 6c 24 20          	mov    0x20(%esp),%ebp
 804a282:	8b 4c 24 24          	mov    0x24(%esp),%ecx
 804a286:	85 c0                	test   %eax,%eax
 804a288:	89 7c 24 04          	mov    %edi,0x4(%esp)
 804a28c:	89 ea                	mov    %ebp,%edx
 804a28e:	89 0c 24             	mov    %ecx,(%esp)
 804a291:	75 2d                	jne    804a2c0 <__udivdi3+0x50>
 804a293:	39 e9                	cmp    %ebp,%ecx
 804a295:	77 61                	ja     804a2f8 <__udivdi3+0x88>
 804a297:	85 c9                	test   %ecx,%ecx
 804a299:	89 ce                	mov    %ecx,%esi
 804a29b:	75 0b                	jne    804a2a8 <__udivdi3+0x38>
 804a29d:	b8 01 00 00 00       	mov    $0x1,%eax
 804a2a2:	31 d2                	xor    %edx,%edx
 804a2a4:	f7 f1                	div    %ecx
 804a2a6:	89 c6                	mov    %eax,%esi
 804a2a8:	31 d2                	xor    %edx,%edx
 804a2aa:	89 e8                	mov    %ebp,%eax
 804a2ac:	f7 f6                	div    %esi
 804a2ae:	89 c5                	mov    %eax,%ebp
 804a2b0:	89 f8                	mov    %edi,%eax
 804a2b2:	f7 f6                	div    %esi
 804a2b4:	89 ea                	mov    %ebp,%edx
 804a2b6:	83 c4 0c             	add    $0xc,%esp
 804a2b9:	5e                   	pop    %esi
 804a2ba:	5f                   	pop    %edi
 804a2bb:	5d                   	pop    %ebp
 804a2bc:	c3                   	ret    
 804a2bd:	8d 76 00             	lea    0x0(%esi),%esi
 804a2c0:	39 e8                	cmp    %ebp,%eax
 804a2c2:	77 24                	ja     804a2e8 <__udivdi3+0x78>
 804a2c4:	0f bd e8             	bsr    %eax,%ebp
 804a2c7:	83 f5 1f             	xor    $0x1f,%ebp
 804a2ca:	75 3c                	jne    804a308 <__udivdi3+0x98>
 804a2cc:	8b 74 24 04          	mov    0x4(%esp),%esi
 804a2d0:	39 34 24             	cmp    %esi,(%esp)
 804a2d3:	0f 86 9f 00 00 00    	jbe    804a378 <__udivdi3+0x108>
 804a2d9:	39 d0                	cmp    %edx,%eax
 804a2db:	0f 82 97 00 00 00    	jb     804a378 <__udivdi3+0x108>
 804a2e1:	8d b4 26 00 00 00 00 	lea    0x0(%esi,%eiz,1),%esi
 804a2e8:	31 d2                	xor    %edx,%edx
 804a2ea:	31 c0                	xor    %eax,%eax
 804a2ec:	83 c4 0c             	add    $0xc,%esp
 804a2ef:	5e                   	pop    %esi
 804a2f0:	5f                   	pop    %edi
 804a2f1:	5d                   	pop    %ebp
 804a2f2:	c3                   	ret    
 804a2f3:	90                   	nop
 804a2f4:	8d 74 26 00          	lea    0x0(%esi,%eiz,1),%esi
 804a2f8:	89 f8                	mov    %edi,%eax
 804a2fa:	f7 f1                	div    %ecx
 804a2fc:	31 d2                	xor    %edx,%edx
 804a2fe:	83 c4 0c             	add    $0xc,%esp
 804a301:	5e                   	pop    %esi
 804a302:	5f                   	pop    %edi
 804a303:	5d                   	pop    %ebp
 804a304:	c3                   	ret    
 804a305:	8d 76 00             	lea    0x0(%esi),%esi
 804a308:	89 e9                	mov    %ebp,%ecx
 804a30a:	8b 3c 24             	mov    (%esp),%edi
 804a30d:	d3 e0                	shl    %cl,%eax
 804a30f:	89 c6                	mov    %eax,%esi
 804a311:	b8 20 00 00 00       	mov    $0x20,%eax
 804a316:	29 e8                	sub    %ebp,%eax
 804a318:	89 c1                	mov    %eax,%ecx
 804a31a:	d3 ef                	shr    %cl,%edi
 804a31c:	89 e9                	mov    %ebp,%ecx
 804a31e:	89 7c 24 08          	mov    %edi,0x8(%esp)
 804a322:	8b 3c 24             	mov    (%esp),%edi
 804a325:	09 74 24 08          	or     %esi,0x8(%esp)
 804a329:	89 d6                	mov    %edx,%esi
 804a32b:	d3 e7                	shl    %cl,%edi
 804a32d:	89 c1                	mov    %eax,%ecx
 804a32f:	89 3c 24             	mov    %edi,(%esp)
 804a332:	8b 7c 24 04          	mov    0x4(%esp),%edi
 804a336:	d3 ee                	shr    %cl,%esi
 804a338:	89 e9                	mov    %ebp,%ecx
 804a33a:	d3 e2                	shl    %cl,%edx
 804a33c:	89 c1                	mov    %eax,%ecx
 804a33e:	d3 ef                	shr    %cl,%edi
 804a340:	09 d7                	or     %edx,%edi
 804a342:	89 f2                	mov    %esi,%edx
 804a344:	89 f8                	mov    %edi,%eax
 804a346:	f7 74 24 08          	divl   0x8(%esp)
 804a34a:	89 d6                	mov    %edx,%esi
 804a34c:	89 c7                	mov    %eax,%edi
 804a34e:	f7 24 24             	mull   (%esp)
 804a351:	39 d6                	cmp    %edx,%esi
 804a353:	89 14 24             	mov    %edx,(%esp)
 804a356:	72 30                	jb     804a388 <__udivdi3+0x118>
 804a358:	8b 54 24 04          	mov    0x4(%esp),%edx
 804a35c:	89 e9                	mov    %ebp,%ecx
 804a35e:	d3 e2                	shl    %cl,%edx
 804a360:	39 c2                	cmp    %eax,%edx
 804a362:	73 05                	jae    804a369 <__udivdi3+0xf9>
 804a364:	3b 34 24             	cmp    (%esp),%esi
 804a367:	74 1f                	je     804a388 <__udivdi3+0x118>
 804a369:	89 f8                	mov    %edi,%eax
 804a36b:	31 d2                	xor    %edx,%edx
 804a36d:	e9 7a ff ff ff       	jmp    804a2ec <__udivdi3+0x7c>
 804a372:	8d b6 00 00 00 00    	lea    0x0(%esi),%esi
 804a378:	31 d2                	xor    %edx,%edx
 804a37a:	b8 01 00 00 00       	mov    $0x1,%eax
 804a37f:	e9 68 ff ff ff       	jmp    804a2ec <__udivdi3+0x7c>
 804a384:	8d 74 26 00          	lea    0x0(%esi,%eiz,1),%esi
 804a388:	8d 47 ff             	lea    -0x1(%edi),%eax
 804a38b:	31 d2                	xor    %edx,%edx
 804a38d:	83 c4 0c             	add    $0xc,%esp
 804a390:	5e                   	pop    %esi
 804a391:	5f                   	pop    %edi
 804a392:	5d                   	pop    %ebp
 804a393:	c3                   	ret    
 804a394:	66 90                	xchg   %ax,%ax
 804a396:	66 90                	xchg   %ax,%ax
 804a398:	66 90                	xchg   %ax,%ax
 804a39a:	66 90                	xchg   %ax,%ax
 804a39c:	66 90                	xchg   %ax,%ax
 804a39e:	66 90                	xchg   %ax,%ax

0804a3a0 <__umoddi3>:
 804a3a0:	55                   	push   %ebp
 804a3a1:	57                   	push   %edi
 804a3a2:	56                   	push   %esi
 804a3a3:	83 ec 14             	sub    $0x14,%esp
 804a3a6:	8b 44 24 28          	mov    0x28(%esp),%eax
 804a3aa:	8b 4c 24 24          	mov    0x24(%esp),%ecx
 804a3ae:	8b 74 24 2c          	mov    0x2c(%esp),%esi
 804a3b2:	89 c7                	mov    %eax,%edi
 804a3b4:	89 44 24 04          	mov    %eax,0x4(%esp)
 804a3b8:	8b 44 24 30          	mov    0x30(%esp),%eax
 804a3bc:	89 4c 24 10          	mov    %ecx,0x10(%esp)
 804a3c0:	89 34 24             	mov    %esi,(%esp)
 804a3c3:	89 4c 24 08          	mov    %ecx,0x8(%esp)
 804a3c7:	85 c0                	test   %eax,%eax
 804a3c9:	89 c2                	mov    %eax,%edx
 804a3cb:	89 7c 24 0c          	mov    %edi,0xc(%esp)
 804a3cf:	75 17                	jne    804a3e8 <__umoddi3+0x48>
 804a3d1:	39 fe                	cmp    %edi,%esi
 804a3d3:	76 4b                	jbe    804a420 <__umoddi3+0x80>
 804a3d5:	89 c8                	mov    %ecx,%eax
 804a3d7:	89 fa                	mov    %edi,%edx
 804a3d9:	f7 f6                	div    %esi
 804a3db:	89 d0                	mov    %edx,%eax
 804a3dd:	31 d2                	xor    %edx,%edx
 804a3df:	83 c4 14             	add    $0x14,%esp
 804a3e2:	5e                   	pop    %esi
 804a3e3:	5f                   	pop    %edi
 804a3e4:	5d                   	pop    %ebp
 804a3e5:	c3                   	ret    
 804a3e6:	66 90                	xchg   %ax,%ax
 804a3e8:	39 f8                	cmp    %edi,%eax
 804a3ea:	77 54                	ja     804a440 <__umoddi3+0xa0>
 804a3ec:	0f bd e8             	bsr    %eax,%ebp
 804a3ef:	83 f5 1f             	xor    $0x1f,%ebp
 804a3f2:	75 5c                	jne    804a450 <__umoddi3+0xb0>
 804a3f4:	8b 7c 24 08          	mov    0x8(%esp),%edi
 804a3f8:	39 3c 24             	cmp    %edi,(%esp)
 804a3fb:	0f 87 e7 00 00 00    	ja     804a4e8 <__umoddi3+0x148>
 804a401:	8b 7c 24 04          	mov    0x4(%esp),%edi
 804a405:	29 f1                	sub    %esi,%ecx
 804a407:	19 c7                	sbb    %eax,%edi
 804a409:	89 4c 24 08          	mov    %ecx,0x8(%esp)
 804a40d:	89 7c 24 0c          	mov    %edi,0xc(%esp)
 804a411:	8b 44 24 08          	mov    0x8(%esp),%eax
 804a415:	8b 54 24 0c          	mov    0xc(%esp),%edx
 804a419:	83 c4 14             	add    $0x14,%esp
 804a41c:	5e                   	pop    %esi
 804a41d:	5f                   	pop    %edi
 804a41e:	5d                   	pop    %ebp
 804a41f:	c3                   	ret    
 804a420:	85 f6                	test   %esi,%esi
 804a422:	89 f5                	mov    %esi,%ebp
 804a424:	75 0b                	jne    804a431 <__umoddi3+0x91>
 804a426:	b8 01 00 00 00       	mov    $0x1,%eax
 804a42b:	31 d2                	xor    %edx,%edx
 804a42d:	f7 f6                	div    %esi
 804a42f:	89 c5                	mov    %eax,%ebp
 804a431:	8b 44 24 04          	mov    0x4(%esp),%eax
 804a435:	31 d2                	xor    %edx,%edx
 804a437:	f7 f5                	div    %ebp
 804a439:	89 c8                	mov    %ecx,%eax
 804a43b:	f7 f5                	div    %ebp
 804a43d:	eb 9c                	jmp    804a3db <__umoddi3+0x3b>
 804a43f:	90                   	nop
 804a440:	89 c8                	mov    %ecx,%eax
 804a442:	89 fa                	mov    %edi,%edx
 804a444:	83 c4 14             	add    $0x14,%esp
 804a447:	5e                   	pop    %esi
 804a448:	5f                   	pop    %edi
 804a449:	5d                   	pop    %ebp
 804a44a:	c3                   	ret    
 804a44b:	90                   	nop
 804a44c:	8d 74 26 00          	lea    0x0(%esi,%eiz,1),%esi
 804a450:	8b 04 24             	mov    (%esp),%eax
 804a453:	be 20 00 00 00       	mov    $0x20,%esi
 804a458:	89 e9                	mov    %ebp,%ecx
 804a45a:	29 ee                	sub    %ebp,%esi
 804a45c:	d3 e2                	shl    %cl,%edx
 804a45e:	89 f1                	mov    %esi,%ecx
 804a460:	d3 e8                	shr    %cl,%eax
 804a462:	89 e9                	mov    %ebp,%ecx
 804a464:	89 44 24 04          	mov    %eax,0x4(%esp)
 804a468:	8b 04 24             	mov    (%esp),%eax
 804a46b:	09 54 24 04          	or     %edx,0x4(%esp)
 804a46f:	89 fa                	mov    %edi,%edx
 804a471:	d3 e0                	shl    %cl,%eax
 804a473:	89 f1                	mov    %esi,%ecx
 804a475:	89 44 24 08          	mov    %eax,0x8(%esp)
 804a479:	8b 44 24 10          	mov    0x10(%esp),%eax
 804a47d:	d3 ea                	shr    %cl,%edx
 804a47f:	89 e9                	mov    %ebp,%ecx
 804a481:	d3 e7                	shl    %cl,%edi
 804a483:	89 f1                	mov    %esi,%ecx
 804a485:	d3 e8                	shr    %cl,%eax
 804a487:	89 e9                	mov    %ebp,%ecx
 804a489:	09 f8                	or     %edi,%eax
 804a48b:	8b 7c 24 10          	mov    0x10(%esp),%edi
 804a48f:	f7 74 24 04          	divl   0x4(%esp)
 804a493:	d3 e7                	shl    %cl,%edi
 804a495:	89 7c 24 0c          	mov    %edi,0xc(%esp)
 804a499:	89 d7                	mov    %edx,%edi
 804a49b:	f7 64 24 08          	mull   0x8(%esp)
 804a49f:	39 d7                	cmp    %edx,%edi
 804a4a1:	89 c1                	mov    %eax,%ecx
 804a4a3:	89 14 24             	mov    %edx,(%esp)
 804a4a6:	72 2c                	jb     804a4d4 <__umoddi3+0x134>
 804a4a8:	39 44 24 0c          	cmp    %eax,0xc(%esp)
 804a4ac:	72 22                	jb     804a4d0 <__umoddi3+0x130>
 804a4ae:	8b 44 24 0c          	mov    0xc(%esp),%eax
 804a4b2:	29 c8                	sub    %ecx,%eax
 804a4b4:	19 d7                	sbb    %edx,%edi
 804a4b6:	89 e9                	mov    %ebp,%ecx
 804a4b8:	89 fa                	mov    %edi,%edx
 804a4ba:	d3 e8                	shr    %cl,%eax
 804a4bc:	89 f1                	mov    %esi,%ecx
 804a4be:	d3 e2                	shl    %cl,%edx
 804a4c0:	89 e9                	mov    %ebp,%ecx
 804a4c2:	d3 ef                	shr    %cl,%edi
 804a4c4:	09 d0                	or     %edx,%eax
 804a4c6:	89 fa                	mov    %edi,%edx
 804a4c8:	83 c4 14             	add    $0x14,%esp
 804a4cb:	5e                   	pop    %esi
 804a4cc:	5f                   	pop    %edi
 804a4cd:	5d                   	pop    %ebp
 804a4ce:	c3                   	ret    
 804a4cf:	90                   	nop
 804a4d0:	39 d7                	cmp    %edx,%edi
 804a4d2:	75 da                	jne    804a4ae <__umoddi3+0x10e>
 804a4d4:	8b 14 24             	mov    (%esp),%edx
 804a4d7:	89 c1                	mov    %eax,%ecx
 804a4d9:	2b 4c 24 08          	sub    0x8(%esp),%ecx
 804a4dd:	1b 54 24 04          	sbb    0x4(%esp),%edx
 804a4e1:	eb cb                	jmp    804a4ae <__umoddi3+0x10e>
 804a4e3:	90                   	nop
 804a4e4:	8d 74 26 00          	lea    0x0(%esi,%eiz,1),%esi
 804a4e8:	3b 44 24 0c          	cmp    0xc(%esp),%eax
 804a4ec:	0f 82 0f ff ff ff    	jb     804a401 <__umoddi3+0x61>
 804a4f2:	e9 1a ff ff ff       	jmp    804a411 <__umoddi3+0x71>
