
bin.game:     file format elf32-i386


Disassembly of section .text:

080480a0 <timer_event>:
 80480a0:	55                   	push   %ebp
 80480a1:	89 e5                	mov    %esp,%ebp
 80480a3:	a1 e0 ba 04 08       	mov    0x804bae0,%eax
 80480a8:	83 c0 01             	add    $0x1,%eax
 80480ab:	a3 e0 ba 04 08       	mov    %eax,0x804bae0
 80480b0:	5d                   	pop    %ebp
 80480b1:	c3                   	ret    

080480b2 <init_game>:
 80480b2:	55                   	push   %ebp
 80480b3:	89 e5                	mov    %esp,%ebp
 80480b5:	83 ec 18             	sub    $0x18,%esp
 80480b8:	e8 22 15 00 00       	call   80495df <init_serial>
 80480bd:	e8 b3 1b 00 00       	call   8049c75 <init_timer>
 80480c2:	c7 44 24 04 a0 80 04 	movl   $0x80480a0,0x4(%esp)
 80480c9:	08 
 80480ca:	c7 04 24 00 00 00 00 	movl   $0x0,(%esp)
 80480d1:	e8 0c 05 00 00       	call   80485e2 <syscall>
 80480d6:	c7 44 24 04 d1 81 04 	movl   $0x80481d1,0x4(%esp)
 80480dd:	08 
 80480de:	c7 04 24 01 00 00 00 	movl   $0x1,(%esp)
 80480e5:	e8 f8 04 00 00       	call   80485e2 <syscall>
 80480ea:	c9                   	leave  
 80480eb:	c3                   	ret    

080480ec <sleep>:
 80480ec:	55                   	push   %ebp
 80480ed:	89 e5                	mov    %esp,%ebp
 80480ef:	83 ec 10             	sub    $0x10,%esp
 80480f2:	a1 e0 ba 04 08       	mov    0x804bae0,%eax
 80480f7:	89 45 fc             	mov    %eax,-0x4(%ebp)
 80480fa:	90                   	nop
 80480fb:	a1 e0 ba 04 08       	mov    0x804bae0,%eax
 8048100:	2b 45 fc             	sub    -0x4(%ebp),%eax
 8048103:	89 c2                	mov    %eax,%edx
 8048105:	8b 45 08             	mov    0x8(%ebp),%eax
 8048108:	6b c0 64             	imul   $0x64,%eax,%eax
 804810b:	39 c2                	cmp    %eax,%edx
 804810d:	7c ec                	jl     80480fb <sleep+0xf>
 804810f:	c9                   	leave  
 8048110:	c3                   	ret    

08048111 <game_main>:
 8048111:	55                   	push   %ebp
 8048112:	89 e5                	mov    %esp,%ebp
 8048114:	83 ec 18             	sub    $0x18,%esp
 8048117:	c7 04 24 80 9f 04 08 	movl   $0x8049f80,(%esp)
 804811e:	e8 99 04 00 00       	call   80485bc <printg>
 8048123:	e8 8a ff ff ff       	call   80480b2 <init_game>
 8048128:	e8 bf 00 00 00       	call   80481ec <clear_letter_pressed>
 804812d:	c7 04 24 8b 9f 04 08 	movl   $0x8049f8b,(%esp)
 8048134:	e8 83 04 00 00       	call   80485bc <printg>
 8048139:	e8 0f 02 00 00       	call   804834d <black_screen>
 804813e:	e8 cf 00 00 00       	call   8048212 <prepare_buffer>
 8048143:	e8 3d 02 00 00       	call   8048385 <draw_border>
 8048148:	e8 2c 01 00 00       	call   8048279 <display_buffer>
 804814d:	fb                   	sti    
 804814e:	e8 4b 05 00 00       	call   804869e <init_block>
 8048153:	c7 04 24 95 9f 04 08 	movl   $0x8049f95,(%esp)
 804815a:	e8 5d 04 00 00       	call   80485bc <printg>
 804815f:	e8 d5 0b 00 00       	call   8048d39 <game_loop>
 8048164:	c7 04 24 02 00 00 00 	movl   $0x2,(%esp)
 804816b:	e8 7c ff ff ff       	call   80480ec <sleep>
 8048170:	eb a5                	jmp    8048117 <game_main+0x6>

08048172 <press_key>:
 8048172:	55                   	push   %ebp
 8048173:	89 e5                	mov    %esp,%ebp
 8048175:	83 ec 10             	sub    $0x10,%esp
 8048178:	c7 45 fc 00 00 00 00 	movl   $0x0,-0x4(%ebp)
 804817f:	eb 1e                	jmp    804819f <press_key+0x2d>
 8048181:	8b 45 fc             	mov    -0x4(%ebp),%eax
 8048184:	8b 04 85 40 ba 04 08 	mov    0x804ba40(,%eax,4),%eax
 804818b:	3b 45 08             	cmp    0x8(%ebp),%eax
 804818e:	75 0b                	jne    804819b <press_key+0x29>
 8048190:	8b 45 fc             	mov    -0x4(%ebp),%eax
 8048193:	05 e4 ba 04 08       	add    $0x804bae4,%eax
 8048198:	c6 00 01             	movb   $0x1,(%eax)
 804819b:	83 45 fc 01          	addl   $0x1,-0x4(%ebp)
 804819f:	83 7d fc 19          	cmpl   $0x19,-0x4(%ebp)
 80481a3:	7e dc                	jle    8048181 <press_key+0xf>
 80481a5:	c9                   	leave  
 80481a6:	c3                   	ret    

080481a7 <release_key>:
 80481a7:	55                   	push   %ebp
 80481a8:	89 e5                	mov    %esp,%ebp
 80481aa:	8b 45 08             	mov    0x8(%ebp),%eax
 80481ad:	05 e4 ba 04 08       	add    $0x804bae4,%eax
 80481b2:	c6 00 00             	movb   $0x0,(%eax)
 80481b5:	5d                   	pop    %ebp
 80481b6:	c3                   	ret    

080481b7 <query_key>:
 80481b7:	55                   	push   %ebp
 80481b8:	89 e5                	mov    %esp,%ebp
 80481ba:	8b 45 08             	mov    0x8(%ebp),%eax
 80481bd:	05 e4 ba 04 08       	add    $0x804bae4,%eax
 80481c2:	0f b6 00             	movzbl (%eax),%eax
 80481c5:	5d                   	pop    %ebp
 80481c6:	c3                   	ret    

080481c7 <last_key_code>:
 80481c7:	55                   	push   %ebp
 80481c8:	89 e5                	mov    %esp,%ebp
 80481ca:	a1 00 bb 04 08       	mov    0x804bb00,%eax
 80481cf:	5d                   	pop    %ebp
 80481d0:	c3                   	ret    

080481d1 <keyboard_event>:
 80481d1:	55                   	push   %ebp
 80481d2:	89 e5                	mov    %esp,%ebp
 80481d4:	83 ec 04             	sub    $0x4,%esp
 80481d7:	8b 45 08             	mov    0x8(%ebp),%eax
 80481da:	a3 00 bb 04 08       	mov    %eax,0x804bb00
 80481df:	8b 45 08             	mov    0x8(%ebp),%eax
 80481e2:	89 04 24             	mov    %eax,(%esp)
 80481e5:	e8 88 ff ff ff       	call   8048172 <press_key>
 80481ea:	c9                   	leave  
 80481eb:	c3                   	ret    

080481ec <clear_letter_pressed>:
 80481ec:	55                   	push   %ebp
 80481ed:	89 e5                	mov    %esp,%ebp
 80481ef:	83 ec 10             	sub    $0x10,%esp
 80481f2:	c7 45 fc 00 00 00 00 	movl   $0x0,-0x4(%ebp)
 80481f9:	eb 0f                	jmp    804820a <clear_letter_pressed+0x1e>
 80481fb:	8b 45 fc             	mov    -0x4(%ebp),%eax
 80481fe:	05 e4 ba 04 08       	add    $0x804bae4,%eax
 8048203:	c6 00 00             	movb   $0x0,(%eax)
 8048206:	83 45 fc 01          	addl   $0x1,-0x4(%ebp)
 804820a:	83 7d fc 19          	cmpl   $0x19,-0x4(%ebp)
 804820e:	7e eb                	jle    80481fb <clear_letter_pressed+0xf>
 8048210:	c9                   	leave  
 8048211:	c3                   	ret    

08048212 <prepare_buffer>:
 8048212:	55                   	push   %ebp
 8048213:	89 e5                	mov    %esp,%ebp
 8048215:	83 ec 18             	sub    $0x18,%esp
 8048218:	c7 44 24 08 00 fa 00 	movl   $0xfa00,0x8(%esp)
 804821f:	00 
 8048220:	c7 44 24 04 00 00 00 	movl   $0x0,0x4(%esp)
 8048227:	00 
 8048228:	c7 04 24 20 bb 04 08 	movl   $0x804bb20,(%esp)
 804822f:	e8 d1 16 00 00       	call   8049905 <memset>
 8048234:	c7 44 24 08 00 fa 00 	movl   $0xfa00,0x8(%esp)
 804823b:	00 
 804823c:	c7 44 24 04 20 bb 04 	movl   $0x804bb20,0x4(%esp)
 8048243:	08 
 8048244:	c7 04 24 20 b5 05 08 	movl   $0x805b520,(%esp)
 804824b:	e8 fd 17 00 00       	call   8049a4d <memcpy>
 8048250:	c7 05 a8 ba 04 08 20 	movl   $0x804bb20,0x804baa8
 8048257:	bb 04 08 
 804825a:	a1 a8 ba 04 08       	mov    0x804baa8,%eax
 804825f:	c7 44 24 08 00 fa 00 	movl   $0xfa00,0x8(%esp)
 8048266:	00 
 8048267:	c7 44 24 04 00 00 00 	movl   $0x0,0x4(%esp)
 804826e:	00 
 804826f:	89 04 24             	mov    %eax,(%esp)
 8048272:	e8 8e 16 00 00       	call   8049905 <memset>
 8048277:	c9                   	leave  
 8048278:	c3                   	ret    

08048279 <display_buffer>:
 8048279:	55                   	push   %ebp
 804827a:	89 e5                	mov    %esp,%ebp
 804827c:	83 ec 28             	sub    $0x28,%esp
 804827f:	c7 45 f0 20 bb 04 08 	movl   $0x804bb20,-0x10(%ebp)
 8048286:	c7 45 ec 20 b5 05 08 	movl   $0x805b520,-0x14(%ebp)
 804828d:	c7 45 f4 00 00 00 00 	movl   $0x0,-0xc(%ebp)
 8048294:	eb 74                	jmp    804830a <display_buffer+0x91>
 8048296:	8b 45 f4             	mov    -0xc(%ebp),%eax
 8048299:	8d 14 85 00 00 00 00 	lea    0x0(,%eax,4),%edx
 80482a0:	8b 45 f0             	mov    -0x10(%ebp),%eax
 80482a3:	01 d0                	add    %edx,%eax
 80482a5:	8b 10                	mov    (%eax),%edx
 80482a7:	8b 45 f4             	mov    -0xc(%ebp),%eax
 80482aa:	8d 0c 85 00 00 00 00 	lea    0x0(,%eax,4),%ecx
 80482b1:	8b 45 ec             	mov    -0x14(%ebp),%eax
 80482b4:	01 c8                	add    %ecx,%eax
 80482b6:	8b 00                	mov    (%eax),%eax
 80482b8:	39 c2                	cmp    %eax,%edx
 80482ba:	74 4a                	je     8048306 <display_buffer+0x8d>
 80482bc:	8b 45 f4             	mov    -0xc(%ebp),%eax
 80482bf:	8d 14 85 00 00 00 00 	lea    0x0(,%eax,4),%edx
 80482c6:	8b 45 f0             	mov    -0x10(%ebp),%eax
 80482c9:	01 d0                	add    %edx,%eax
 80482cb:	8b 00                	mov    (%eax),%eax
 80482cd:	89 44 24 08          	mov    %eax,0x8(%esp)
 80482d1:	8b 45 f4             	mov    -0xc(%ebp),%eax
 80482d4:	89 44 24 04          	mov    %eax,0x4(%esp)
 80482d8:	c7 04 24 3e 00 00 00 	movl   $0x3e,(%esp)
 80482df:	e8 7f 03 00 00       	call   8048663 <system_draw_pixel_off>
 80482e4:	8b 45 f4             	mov    -0xc(%ebp),%eax
 80482e7:	8d 14 85 00 00 00 00 	lea    0x0(,%eax,4),%edx
 80482ee:	8b 45 ec             	mov    -0x14(%ebp),%eax
 80482f1:	01 c2                	add    %eax,%edx
 80482f3:	8b 45 f4             	mov    -0xc(%ebp),%eax
 80482f6:	8d 0c 85 00 00 00 00 	lea    0x0(,%eax,4),%ecx
 80482fd:	8b 45 f0             	mov    -0x10(%ebp),%eax
 8048300:	01 c8                	add    %ecx,%eax
 8048302:	8b 00                	mov    (%eax),%eax
 8048304:	89 02                	mov    %eax,(%edx)
 8048306:	83 45 f4 01          	addl   $0x1,-0xc(%ebp)
 804830a:	81 7d f4 7f 3e 00 00 	cmpl   $0x3e7f,-0xc(%ebp)
 8048311:	7e 83                	jle    8048296 <display_buffer+0x1d>
 8048313:	c9                   	leave  
 8048314:	c3                   	ret    

08048315 <blue_screen>:
 8048315:	55                   	push   %ebp
 8048316:	89 e5                	mov    %esp,%ebp
 8048318:	83 ec 18             	sub    $0x18,%esp
 804831b:	c7 44 24 04 01 00 00 	movl   $0x1,0x4(%esp)
 8048322:	00 
 8048323:	c7 04 24 3f 00 00 00 	movl   $0x3f,(%esp)
 804832a:	e8 55 03 00 00       	call   8048684 <system_clear_screen>
 804832f:	c9                   	leave  
 8048330:	c3                   	ret    

08048331 <white_screen>:
 8048331:	55                   	push   %ebp
 8048332:	89 e5                	mov    %esp,%ebp
 8048334:	83 ec 18             	sub    $0x18,%esp
 8048337:	c7 44 24 04 0f 00 00 	movl   $0xf,0x4(%esp)
 804833e:	00 
 804833f:	c7 04 24 3f 00 00 00 	movl   $0x3f,(%esp)
 8048346:	e8 39 03 00 00       	call   8048684 <system_clear_screen>
 804834b:	c9                   	leave  
 804834c:	c3                   	ret    

0804834d <black_screen>:
 804834d:	55                   	push   %ebp
 804834e:	89 e5                	mov    %esp,%ebp
 8048350:	83 ec 18             	sub    $0x18,%esp
 8048353:	c7 44 24 04 00 00 00 	movl   $0x0,0x4(%esp)
 804835a:	00 
 804835b:	c7 04 24 3f 00 00 00 	movl   $0x3f,(%esp)
 8048362:	e8 1d 03 00 00       	call   8048684 <system_clear_screen>
 8048367:	c9                   	leave  
 8048368:	c3                   	ret    

08048369 <yellow_screen>:
 8048369:	55                   	push   %ebp
 804836a:	89 e5                	mov    %esp,%ebp
 804836c:	83 ec 18             	sub    $0x18,%esp
 804836f:	c7 44 24 04 0e 00 00 	movl   $0xe,0x4(%esp)
 8048376:	00 
 8048377:	c7 04 24 3f 00 00 00 	movl   $0x3f,(%esp)
 804837e:	e8 01 03 00 00       	call   8048684 <system_clear_screen>
 8048383:	c9                   	leave  
 8048384:	c3                   	ret    

08048385 <draw_border>:
 8048385:	55                   	push   %ebp
 8048386:	89 e5                	mov    %esp,%ebp
 8048388:	83 ec 10             	sub    $0x10,%esp
 804838b:	c7 45 fc 00 00 00 00 	movl   $0x0,-0x4(%ebp)
 8048392:	eb 5a                	jmp    80483ee <draw_border+0x69>
 8048394:	c7 45 f8 00 00 00 00 	movl   $0x0,-0x8(%ebp)
 804839b:	eb 43                	jmp    80483e0 <draw_border+0x5b>
 804839d:	c7 45 f4 00 00 00 00 	movl   $0x0,-0xc(%ebp)
 80483a4:	eb 2c                	jmp    80483d2 <draw_border+0x4d>
 80483a6:	a1 b0 ba 04 08       	mov    0x804bab0,%eax
 80483ab:	0f af 45 fc          	imul   -0x4(%ebp),%eax
 80483af:	89 c2                	mov    %eax,%edx
 80483b1:	8b 45 f8             	mov    -0x8(%ebp),%eax
 80483b4:	01 c2                	add    %eax,%edx
 80483b6:	89 d0                	mov    %edx,%eax
 80483b8:	c1 e0 02             	shl    $0x2,%eax
 80483bb:	01 d0                	add    %edx,%eax
 80483bd:	c1 e0 06             	shl    $0x6,%eax
 80483c0:	89 c2                	mov    %eax,%edx
 80483c2:	8b 45 f4             	mov    -0xc(%ebp),%eax
 80483c5:	01 d0                	add    %edx,%eax
 80483c7:	c6 80 20 bb 04 08 01 	movb   $0x1,0x804bb20(%eax)
 80483ce:	83 45 f4 01          	addl   $0x1,-0xc(%ebp)
 80483d2:	a1 b8 ba 04 08       	mov    0x804bab8,%eax
 80483d7:	39 45 f4             	cmp    %eax,-0xc(%ebp)
 80483da:	7c ca                	jl     80483a6 <draw_border+0x21>
 80483dc:	83 45 f8 01          	addl   $0x1,-0x8(%ebp)
 80483e0:	a1 c4 ba 04 08       	mov    0x804bac4,%eax
 80483e5:	39 45 f8             	cmp    %eax,-0x8(%ebp)
 80483e8:	7c b3                	jl     804839d <draw_border+0x18>
 80483ea:	83 45 fc 01          	addl   $0x1,-0x4(%ebp)
 80483ee:	a1 c8 ba 04 08       	mov    0x804bac8,%eax
 80483f3:	39 45 fc             	cmp    %eax,-0x4(%ebp)
 80483f6:	7c 9c                	jl     8048394 <draw_border+0xf>
 80483f8:	c7 45 fc 00 00 00 00 	movl   $0x0,-0x4(%ebp)
 80483ff:	eb 58                	jmp    8048459 <draw_border+0xd4>
 8048401:	c7 45 f8 00 00 00 00 	movl   $0x0,-0x8(%ebp)
 8048408:	eb 41                	jmp    804844b <draw_border+0xc6>
 804840a:	c7 45 f4 00 00 00 00 	movl   $0x0,-0xc(%ebp)
 8048411:	eb 2a                	jmp    804843d <draw_border+0xb8>
 8048413:	8b 55 fc             	mov    -0x4(%ebp),%edx
 8048416:	89 d0                	mov    %edx,%eax
 8048418:	c1 e0 02             	shl    $0x2,%eax
 804841b:	01 d0                	add    %edx,%eax
 804841d:	c1 e0 06             	shl    $0x6,%eax
 8048420:	89 c2                	mov    %eax,%edx
 8048422:	a1 ac ba 04 08       	mov    0x804baac,%eax
 8048427:	0f af 45 f8          	imul   -0x8(%ebp),%eax
 804842b:	01 c2                	add    %eax,%edx
 804842d:	8b 45 f4             	mov    -0xc(%ebp),%eax
 8048430:	01 d0                	add    %edx,%eax
 8048432:	c6 80 20 bb 04 08 01 	movb   $0x1,0x804bb20(%eax)
 8048439:	83 45 f4 01          	addl   $0x1,-0xc(%ebp)
 804843d:	a1 bc ba 04 08       	mov    0x804babc,%eax
 8048442:	39 45 f4             	cmp    %eax,-0xc(%ebp)
 8048445:	7c cc                	jl     8048413 <draw_border+0x8e>
 8048447:	83 45 f8 01          	addl   $0x1,-0x8(%ebp)
 804844b:	a1 c0 ba 04 08       	mov    0x804bac0,%eax
 8048450:	39 45 f8             	cmp    %eax,-0x8(%ebp)
 8048453:	7c b5                	jl     804840a <draw_border+0x85>
 8048455:	83 45 fc 01          	addl   $0x1,-0x4(%ebp)
 8048459:	a1 b4 ba 04 08       	mov    0x804bab4,%eax
 804845e:	39 45 fc             	cmp    %eax,-0x4(%ebp)
 8048461:	7c 9e                	jl     8048401 <draw_border+0x7c>
 8048463:	c9                   	leave  
 8048464:	c3                   	ret    

08048465 <draw_block>:
 8048465:	55                   	push   %ebp
 8048466:	89 e5                	mov    %esp,%ebp
 8048468:	83 ec 24             	sub    $0x24,%esp
 804846b:	8b 45 0c             	mov    0xc(%ebp),%eax
 804846e:	88 45 dc             	mov    %al,-0x24(%ebp)
 8048471:	8b 45 08             	mov    0x8(%ebp),%eax
 8048474:	8d 48 ff             	lea    -0x1(%eax),%ecx
 8048477:	ba 56 55 55 55       	mov    $0x55555556,%edx
 804847c:	89 c8                	mov    %ecx,%eax
 804847e:	f7 ea                	imul   %edx
 8048480:	89 c8                	mov    %ecx,%eax
 8048482:	c1 f8 1f             	sar    $0x1f,%eax
 8048485:	29 c2                	sub    %eax,%edx
 8048487:	89 d0                	mov    %edx,%eax
 8048489:	89 45 f0             	mov    %eax,-0x10(%ebp)
 804848c:	8b 4d 08             	mov    0x8(%ebp),%ecx
 804848f:	ba 56 55 55 55       	mov    $0x55555556,%edx
 8048494:	89 c8                	mov    %ecx,%eax
 8048496:	f7 ea                	imul   %edx
 8048498:	89 c8                	mov    %ecx,%eax
 804849a:	c1 f8 1f             	sar    $0x1f,%eax
 804849d:	29 c2                	sub    %eax,%edx
 804849f:	89 d0                	mov    %edx,%eax
 80484a1:	01 c0                	add    %eax,%eax
 80484a3:	01 d0                	add    %edx,%eax
 80484a5:	29 c1                	sub    %eax,%ecx
 80484a7:	89 c8                	mov    %ecx,%eax
 80484a9:	89 45 fc             	mov    %eax,-0x4(%ebp)
 80484ac:	83 7d fc 00          	cmpl   $0x0,-0x4(%ebp)
 80484b0:	75 04                	jne    80484b6 <draw_block+0x51>
 80484b2:	83 45 fc 03          	addl   $0x3,-0x4(%ebp)
 80484b6:	83 6d fc 01          	subl   $0x1,-0x4(%ebp)
 80484ba:	a1 b0 ba 04 08       	mov    0x804bab0,%eax
 80484bf:	0f af 45 f0          	imul   -0x10(%ebp),%eax
 80484c3:	89 c2                	mov    %eax,%edx
 80484c5:	a1 c4 ba 04 08       	mov    0x804bac4,%eax
 80484ca:	01 c2                	add    %eax,%edx
 80484cc:	89 d0                	mov    %edx,%eax
 80484ce:	c1 e0 02             	shl    $0x2,%eax
 80484d1:	01 d0                	add    %edx,%eax
 80484d3:	c1 e0 06             	shl    $0x6,%eax
 80484d6:	89 c2                	mov    %eax,%edx
 80484d8:	a1 bc ba 04 08       	mov    0x804babc,%eax
 80484dd:	01 c2                	add    %eax,%edx
 80484df:	a1 ac ba 04 08       	mov    0x804baac,%eax
 80484e4:	0f af 45 fc          	imul   -0x4(%ebp),%eax
 80484e8:	01 d0                	add    %edx,%eax
 80484ea:	89 45 ec             	mov    %eax,-0x14(%ebp)
 80484ed:	c7 45 f8 00 00 00 00 	movl   $0x0,-0x8(%ebp)
 80484f4:	eb 59                	jmp    804854f <draw_block+0xea>
 80484f6:	8b 55 f8             	mov    -0x8(%ebp),%edx
 80484f9:	89 d0                	mov    %edx,%eax
 80484fb:	c1 e0 02             	shl    $0x2,%eax
 80484fe:	01 d0                	add    %edx,%eax
 8048500:	c1 e0 06             	shl    $0x6,%eax
 8048503:	89 c2                	mov    %eax,%edx
 8048505:	8b 45 ec             	mov    -0x14(%ebp),%eax
 8048508:	01 d0                	add    %edx,%eax
 804850a:	89 45 f4             	mov    %eax,-0xc(%ebp)
 804850d:	eb 13                	jmp    8048522 <draw_block+0xbd>
 804850f:	8b 45 f4             	mov    -0xc(%ebp),%eax
 8048512:	8d 90 20 bb 04 08    	lea    0x804bb20(%eax),%edx
 8048518:	0f b6 45 dc          	movzbl -0x24(%ebp),%eax
 804851c:	88 02                	mov    %al,(%edx)
 804851e:	83 45 f4 01          	addl   $0x1,-0xc(%ebp)
 8048522:	8b 55 f8             	mov    -0x8(%ebp),%edx
 8048525:	89 d0                	mov    %edx,%eax
 8048527:	c1 e0 02             	shl    $0x2,%eax
 804852a:	01 d0                	add    %edx,%eax
 804852c:	c1 e0 06             	shl    $0x6,%eax
 804852f:	89 c2                	mov    %eax,%edx
 8048531:	8b 45 ec             	mov    -0x14(%ebp),%eax
 8048534:	01 c2                	add    %eax,%edx
 8048536:	a1 ac ba 04 08       	mov    0x804baac,%eax
 804853b:	01 c2                	add    %eax,%edx
 804853d:	a1 bc ba 04 08       	mov    0x804babc,%eax
 8048542:	29 c2                	sub    %eax,%edx
 8048544:	89 d0                	mov    %edx,%eax
 8048546:	3b 45 f4             	cmp    -0xc(%ebp),%eax
 8048549:	7f c4                	jg     804850f <draw_block+0xaa>
 804854b:	83 45 f8 01          	addl   $0x1,-0x8(%ebp)
 804854f:	a1 b0 ba 04 08       	mov    0x804bab0,%eax
 8048554:	83 e8 04             	sub    $0x4,%eax
 8048557:	3b 45 f8             	cmp    -0x8(%ebp),%eax
 804855a:	7f 9a                	jg     80484f6 <draw_block+0x91>
 804855c:	c9                   	leave  
 804855d:	c3                   	ret    

0804855e <putch_g>:
 804855e:	55                   	push   %ebp
 804855f:	89 e5                	mov    %esp,%ebp
 8048561:	83 ec 18             	sub    $0x18,%esp
 8048564:	8b 45 08             	mov    0x8(%ebp),%eax
 8048567:	0f be c0             	movsbl %al,%eax
 804856a:	89 44 24 04          	mov    %eax,0x4(%esp)
 804856e:	c7 04 24 3d 00 00 00 	movl   $0x3d,(%esp)
 8048575:	e8 c8 00 00 00       	call   8048642 <system_serial_print>
 804857a:	8b 45 0c             	mov    0xc(%ebp),%eax
 804857d:	8b 00                	mov    (%eax),%eax
 804857f:	8d 50 01             	lea    0x1(%eax),%edx
 8048582:	8b 45 0c             	mov    0xc(%ebp),%eax
 8048585:	89 10                	mov    %edx,(%eax)
 8048587:	c9                   	leave  
 8048588:	c3                   	ret    

08048589 <vprintg>:
 8048589:	55                   	push   %ebp
 804858a:	89 e5                	mov    %esp,%ebp
 804858c:	83 ec 28             	sub    $0x28,%esp
 804858f:	c7 45 f4 00 00 00 00 	movl   $0x0,-0xc(%ebp)
 8048596:	8b 45 0c             	mov    0xc(%ebp),%eax
 8048599:	89 44 24 0c          	mov    %eax,0xc(%esp)
 804859d:	8b 45 08             	mov    0x8(%ebp),%eax
 80485a0:	89 44 24 08          	mov    %eax,0x8(%esp)
 80485a4:	8d 45 f4             	lea    -0xc(%ebp),%eax
 80485a7:	89 44 24 04          	mov    %eax,0x4(%esp)
 80485ab:	c7 04 24 5e 85 04 08 	movl   $0x804855e,(%esp)
 80485b2:	e8 10 0b 00 00       	call   80490c7 <vprintfmt>
 80485b7:	8b 45 f4             	mov    -0xc(%ebp),%eax
 80485ba:	c9                   	leave  
 80485bb:	c3                   	ret    

080485bc <printg>:
 80485bc:	55                   	push   %ebp
 80485bd:	89 e5                	mov    %esp,%ebp
 80485bf:	83 ec 28             	sub    $0x28,%esp
 80485c2:	8d 45 0c             	lea    0xc(%ebp),%eax
 80485c5:	89 45 f0             	mov    %eax,-0x10(%ebp)
 80485c8:	8b 45 f0             	mov    -0x10(%ebp),%eax
 80485cb:	89 44 24 04          	mov    %eax,0x4(%esp)
 80485cf:	8b 45 08             	mov    0x8(%ebp),%eax
 80485d2:	89 04 24             	mov    %eax,(%esp)
 80485d5:	e8 af ff ff ff       	call   8048589 <vprintg>
 80485da:	89 45 f4             	mov    %eax,-0xc(%ebp)
 80485dd:	8b 45 f4             	mov    -0xc(%ebp),%eax
 80485e0:	c9                   	leave  
 80485e1:	c3                   	ret    

080485e2 <syscall>:
 80485e2:	55                   	push   %ebp
 80485e3:	89 e5                	mov    %esp,%ebp
 80485e5:	53                   	push   %ebx
 80485e6:	83 ec 10             	sub    $0x10,%esp
 80485e9:	8d 45 08             	lea    0x8(%ebp),%eax
 80485ec:	89 45 f8             	mov    %eax,-0x8(%ebp)
 80485ef:	8b 45 f8             	mov    -0x8(%ebp),%eax
 80485f2:	8b 00                	mov    (%eax),%eax
 80485f4:	8b 55 f8             	mov    -0x8(%ebp),%edx
 80485f7:	83 c2 04             	add    $0x4,%edx
 80485fa:	8b 1a                	mov    (%edx),%ebx
 80485fc:	8b 55 f8             	mov    -0x8(%ebp),%edx
 80485ff:	83 c2 08             	add    $0x8,%edx
 8048602:	8b 0a                	mov    (%edx),%ecx
 8048604:	8b 55 f8             	mov    -0x8(%ebp),%edx
 8048607:	83 c2 0c             	add    $0xc,%edx
 804860a:	8b 12                	mov    (%edx),%edx
 804860c:	cd 80                	int    $0x80
 804860e:	89 45 f4             	mov    %eax,-0xc(%ebp)
 8048611:	8b 45 f4             	mov    -0xc(%ebp),%eax
 8048614:	83 c4 10             	add    $0x10,%esp
 8048617:	5b                   	pop    %ebx
 8048618:	5d                   	pop    %ebp
 8048619:	c3                   	ret    

0804861a <system_draw_pixel>:
 804861a:	55                   	push   %ebp
 804861b:	89 e5                	mov    %esp,%ebp
 804861d:	83 ec 10             	sub    $0x10,%esp
 8048620:	8b 45 14             	mov    0x14(%ebp),%eax
 8048623:	89 44 24 0c          	mov    %eax,0xc(%esp)
 8048627:	8b 45 10             	mov    0x10(%ebp),%eax
 804862a:	89 44 24 08          	mov    %eax,0x8(%esp)
 804862e:	8b 45 0c             	mov    0xc(%ebp),%eax
 8048631:	89 44 24 04          	mov    %eax,0x4(%esp)
 8048635:	8b 45 08             	mov    0x8(%ebp),%eax
 8048638:	89 04 24             	mov    %eax,(%esp)
 804863b:	e8 a2 ff ff ff       	call   80485e2 <syscall>
 8048640:	c9                   	leave  
 8048641:	c3                   	ret    

08048642 <system_serial_print>:
 8048642:	55                   	push   %ebp
 8048643:	89 e5                	mov    %esp,%ebp
 8048645:	83 ec 0c             	sub    $0xc,%esp
 8048648:	8b 45 0c             	mov    0xc(%ebp),%eax
 804864b:	88 45 fc             	mov    %al,-0x4(%ebp)
 804864e:	0f be 45 fc          	movsbl -0x4(%ebp),%eax
 8048652:	89 44 24 04          	mov    %eax,0x4(%esp)
 8048656:	8b 45 08             	mov    0x8(%ebp),%eax
 8048659:	89 04 24             	mov    %eax,(%esp)
 804865c:	e8 81 ff ff ff       	call   80485e2 <syscall>
 8048661:	c9                   	leave  
 8048662:	c3                   	ret    

08048663 <system_draw_pixel_off>:
 8048663:	55                   	push   %ebp
 8048664:	89 e5                	mov    %esp,%ebp
 8048666:	83 ec 0c             	sub    $0xc,%esp
 8048669:	8b 45 10             	mov    0x10(%ebp),%eax
 804866c:	89 44 24 08          	mov    %eax,0x8(%esp)
 8048670:	8b 45 0c             	mov    0xc(%ebp),%eax
 8048673:	89 44 24 04          	mov    %eax,0x4(%esp)
 8048677:	8b 45 08             	mov    0x8(%ebp),%eax
 804867a:	89 04 24             	mov    %eax,(%esp)
 804867d:	e8 60 ff ff ff       	call   80485e2 <syscall>
 8048682:	c9                   	leave  
 8048683:	c3                   	ret    

08048684 <system_clear_screen>:
 8048684:	55                   	push   %ebp
 8048685:	89 e5                	mov    %esp,%ebp
 8048687:	83 ec 08             	sub    $0x8,%esp
 804868a:	8b 45 0c             	mov    0xc(%ebp),%eax
 804868d:	89 44 24 04          	mov    %eax,0x4(%esp)
 8048691:	8b 45 08             	mov    0x8(%ebp),%eax
 8048694:	89 04 24             	mov    %eax,(%esp)
 8048697:	e8 46 ff ff ff       	call   80485e2 <syscall>
 804869c:	c9                   	leave  
 804869d:	c3                   	ret    

0804869e <init_block>:
 804869e:	55                   	push   %ebp
 804869f:	89 e5                	mov    %esp,%ebp
 80486a1:	53                   	push   %ebx
 80486a2:	83 ec 10             	sub    $0x10,%esp
 80486a5:	c7 45 f8 00 00 00 00 	movl   $0x0,-0x8(%ebp)
 80486ac:	e9 05 04 00 00       	jmp    8048ab6 <init_block+0x418>
 80486b1:	c7 45 f4 00 00 00 00 	movl   $0x0,-0xc(%ebp)
 80486b8:	e9 eb 03 00 00       	jmp    8048aa8 <init_block+0x40a>
 80486bd:	8b 45 f4             	mov    -0xc(%ebp),%eax
 80486c0:	8b 4d f8             	mov    -0x8(%ebp),%ecx
 80486c3:	89 c2                	mov    %eax,%edx
 80486c5:	01 d2                	add    %edx,%edx
 80486c7:	01 c2                	add    %eax,%edx
 80486c9:	8d 04 95 00 00 00 00 	lea    0x0(,%edx,4),%eax
 80486d0:	89 c2                	mov    %eax,%edx
 80486d2:	89 c8                	mov    %ecx,%eax
 80486d4:	c1 e0 03             	shl    $0x3,%eax
 80486d7:	01 c8                	add    %ecx,%eax
 80486d9:	c1 e0 02             	shl    $0x2,%eax
 80486dc:	01 d0                	add    %edx,%eax
 80486de:	05 20 af 06 08       	add    $0x806af20,%eax
 80486e3:	c7 40 04 00 00 00 00 	movl   $0x0,0x4(%eax)
 80486ea:	8b 55 f8             	mov    -0x8(%ebp),%edx
 80486ed:	89 d0                	mov    %edx,%eax
 80486ef:	01 c0                	add    %eax,%eax
 80486f1:	01 c2                	add    %eax,%edx
 80486f3:	8b 45 f4             	mov    -0xc(%ebp),%eax
 80486f6:	01 d0                	add    %edx,%eax
 80486f8:	8d 58 01             	lea    0x1(%eax),%ebx
 80486fb:	8b 45 f4             	mov    -0xc(%ebp),%eax
 80486fe:	8b 4d f8             	mov    -0x8(%ebp),%ecx
 8048701:	89 c2                	mov    %eax,%edx
 8048703:	01 d2                	add    %edx,%edx
 8048705:	01 c2                	add    %eax,%edx
 8048707:	8d 04 95 00 00 00 00 	lea    0x0(,%edx,4),%eax
 804870e:	89 c2                	mov    %eax,%edx
 8048710:	89 c8                	mov    %ecx,%eax
 8048712:	c1 e0 03             	shl    $0x3,%eax
 8048715:	01 c8                	add    %ecx,%eax
 8048717:	c1 e0 02             	shl    $0x2,%eax
 804871a:	01 d0                	add    %edx,%eax
 804871c:	05 20 af 06 08       	add    $0x806af20,%eax
 8048721:	89 18                	mov    %ebx,(%eax)
 8048723:	8b 45 f4             	mov    -0xc(%ebp),%eax
 8048726:	8b 4d f8             	mov    -0x8(%ebp),%ecx
 8048729:	89 c2                	mov    %eax,%edx
 804872b:	01 d2                	add    %edx,%edx
 804872d:	01 c2                	add    %eax,%edx
 804872f:	8d 04 95 00 00 00 00 	lea    0x0(,%edx,4),%eax
 8048736:	89 c2                	mov    %eax,%edx
 8048738:	89 c8                	mov    %ecx,%eax
 804873a:	c1 e0 03             	shl    $0x3,%eax
 804873d:	01 c8                	add    %ecx,%eax
 804873f:	c1 e0 02             	shl    $0x2,%eax
 8048742:	01 d0                	add    %edx,%eax
 8048744:	05 20 af 06 08       	add    $0x806af20,%eax
 8048749:	8b 00                	mov    (%eax),%eax
 804874b:	83 f8 01             	cmp    $0x1,%eax
 804874e:	75 32                	jne    8048782 <init_block+0xe4>
 8048750:	8b 45 f4             	mov    -0xc(%ebp),%eax
 8048753:	8b 4d f8             	mov    -0x8(%ebp),%ecx
 8048756:	89 c2                	mov    %eax,%edx
 8048758:	01 d2                	add    %edx,%edx
 804875a:	01 c2                	add    %eax,%edx
 804875c:	8d 04 95 00 00 00 00 	lea    0x0(,%edx,4),%eax
 8048763:	89 c2                	mov    %eax,%edx
 8048765:	89 c8                	mov    %ecx,%eax
 8048767:	c1 e0 03             	shl    $0x3,%eax
 804876a:	01 c8                	add    %ecx,%eax
 804876c:	c1 e0 02             	shl    $0x2,%eax
 804876f:	01 d0                	add    %edx,%eax
 8048771:	05 20 af 06 08       	add    $0x806af20,%eax
 8048776:	c7 40 08 10 00 00 00 	movl   $0x10,0x8(%eax)
 804877d:	e9 22 03 00 00       	jmp    8048aa4 <init_block+0x406>
 8048782:	8b 45 f4             	mov    -0xc(%ebp),%eax
 8048785:	8b 4d f8             	mov    -0x8(%ebp),%ecx
 8048788:	89 c2                	mov    %eax,%edx
 804878a:	01 d2                	add    %edx,%edx
 804878c:	01 c2                	add    %eax,%edx
 804878e:	8d 04 95 00 00 00 00 	lea    0x0(,%edx,4),%eax
 8048795:	89 c2                	mov    %eax,%edx
 8048797:	89 c8                	mov    %ecx,%eax
 8048799:	c1 e0 03             	shl    $0x3,%eax
 804879c:	01 c8                	add    %ecx,%eax
 804879e:	c1 e0 02             	shl    $0x2,%eax
 80487a1:	01 d0                	add    %edx,%eax
 80487a3:	05 20 af 06 08       	add    $0x806af20,%eax
 80487a8:	8b 00                	mov    (%eax),%eax
 80487aa:	83 f8 02             	cmp    $0x2,%eax
 80487ad:	75 32                	jne    80487e1 <init_block+0x143>
 80487af:	8b 45 f4             	mov    -0xc(%ebp),%eax
 80487b2:	8b 4d f8             	mov    -0x8(%ebp),%ecx
 80487b5:	89 c2                	mov    %eax,%edx
 80487b7:	01 d2                	add    %edx,%edx
 80487b9:	01 c2                	add    %eax,%edx
 80487bb:	8d 04 95 00 00 00 00 	lea    0x0(,%edx,4),%eax
 80487c2:	89 c2                	mov    %eax,%edx
 80487c4:	89 c8                	mov    %ecx,%eax
 80487c6:	c1 e0 03             	shl    $0x3,%eax
 80487c9:	01 c8                	add    %ecx,%eax
 80487cb:	c1 e0 02             	shl    $0x2,%eax
 80487ce:	01 d0                	add    %edx,%eax
 80487d0:	05 20 af 06 08       	add    $0x806af20,%eax
 80487d5:	c7 40 08 16 00 00 00 	movl   $0x16,0x8(%eax)
 80487dc:	e9 c3 02 00 00       	jmp    8048aa4 <init_block+0x406>
 80487e1:	8b 45 f4             	mov    -0xc(%ebp),%eax
 80487e4:	8b 4d f8             	mov    -0x8(%ebp),%ecx
 80487e7:	89 c2                	mov    %eax,%edx
 80487e9:	01 d2                	add    %edx,%edx
 80487eb:	01 c2                	add    %eax,%edx
 80487ed:	8d 04 95 00 00 00 00 	lea    0x0(,%edx,4),%eax
 80487f4:	89 c2                	mov    %eax,%edx
 80487f6:	89 c8                	mov    %ecx,%eax
 80487f8:	c1 e0 03             	shl    $0x3,%eax
 80487fb:	01 c8                	add    %ecx,%eax
 80487fd:	c1 e0 02             	shl    $0x2,%eax
 8048800:	01 d0                	add    %edx,%eax
 8048802:	05 20 af 06 08       	add    $0x806af20,%eax
 8048807:	8b 00                	mov    (%eax),%eax
 8048809:	83 f8 03             	cmp    $0x3,%eax
 804880c:	75 32                	jne    8048840 <init_block+0x1a2>
 804880e:	8b 45 f4             	mov    -0xc(%ebp),%eax
 8048811:	8b 4d f8             	mov    -0x8(%ebp),%ecx
 8048814:	89 c2                	mov    %eax,%edx
 8048816:	01 d2                	add    %edx,%edx
 8048818:	01 c2                	add    %eax,%edx
 804881a:	8d 04 95 00 00 00 00 	lea    0x0(,%edx,4),%eax
 8048821:	89 c2                	mov    %eax,%edx
 8048823:	89 c8                	mov    %ecx,%eax
 8048825:	c1 e0 03             	shl    $0x3,%eax
 8048828:	01 c8                	add    %ecx,%eax
 804882a:	c1 e0 02             	shl    $0x2,%eax
 804882d:	01 d0                	add    %edx,%eax
 804882f:	05 20 af 06 08       	add    $0x806af20,%eax
 8048834:	c7 40 08 04 00 00 00 	movl   $0x4,0x8(%eax)
 804883b:	e9 64 02 00 00       	jmp    8048aa4 <init_block+0x406>
 8048840:	8b 45 f4             	mov    -0xc(%ebp),%eax
 8048843:	8b 4d f8             	mov    -0x8(%ebp),%ecx
 8048846:	89 c2                	mov    %eax,%edx
 8048848:	01 d2                	add    %edx,%edx
 804884a:	01 c2                	add    %eax,%edx
 804884c:	8d 04 95 00 00 00 00 	lea    0x0(,%edx,4),%eax
 8048853:	89 c2                	mov    %eax,%edx
 8048855:	89 c8                	mov    %ecx,%eax
 8048857:	c1 e0 03             	shl    $0x3,%eax
 804885a:	01 c8                	add    %ecx,%eax
 804885c:	c1 e0 02             	shl    $0x2,%eax
 804885f:	01 d0                	add    %edx,%eax
 8048861:	05 20 af 06 08       	add    $0x806af20,%eax
 8048866:	8b 00                	mov    (%eax),%eax
 8048868:	83 f8 04             	cmp    $0x4,%eax
 804886b:	75 32                	jne    804889f <init_block+0x201>
 804886d:	8b 45 f4             	mov    -0xc(%ebp),%eax
 8048870:	8b 4d f8             	mov    -0x8(%ebp),%ecx
 8048873:	89 c2                	mov    %eax,%edx
 8048875:	01 d2                	add    %edx,%edx
 8048877:	01 c2                	add    %eax,%edx
 8048879:	8d 04 95 00 00 00 00 	lea    0x0(,%edx,4),%eax
 8048880:	89 c2                	mov    %eax,%edx
 8048882:	89 c8                	mov    %ecx,%eax
 8048884:	c1 e0 03             	shl    $0x3,%eax
 8048887:	01 c8                	add    %ecx,%eax
 8048889:	c1 e0 02             	shl    $0x2,%eax
 804888c:	01 d0                	add    %edx,%eax
 804888e:	05 20 af 06 08       	add    $0x806af20,%eax
 8048893:	c7 40 08 00 00 00 00 	movl   $0x0,0x8(%eax)
 804889a:	e9 05 02 00 00       	jmp    8048aa4 <init_block+0x406>
 804889f:	8b 45 f4             	mov    -0xc(%ebp),%eax
 80488a2:	8b 4d f8             	mov    -0x8(%ebp),%ecx
 80488a5:	89 c2                	mov    %eax,%edx
 80488a7:	01 d2                	add    %edx,%edx
 80488a9:	01 c2                	add    %eax,%edx
 80488ab:	8d 04 95 00 00 00 00 	lea    0x0(,%edx,4),%eax
 80488b2:	89 c2                	mov    %eax,%edx
 80488b4:	89 c8                	mov    %ecx,%eax
 80488b6:	c1 e0 03             	shl    $0x3,%eax
 80488b9:	01 c8                	add    %ecx,%eax
 80488bb:	c1 e0 02             	shl    $0x2,%eax
 80488be:	01 d0                	add    %edx,%eax
 80488c0:	05 20 af 06 08       	add    $0x806af20,%eax
 80488c5:	8b 00                	mov    (%eax),%eax
 80488c7:	83 f8 05             	cmp    $0x5,%eax
 80488ca:	75 32                	jne    80488fe <init_block+0x260>
 80488cc:	8b 45 f4             	mov    -0xc(%ebp),%eax
 80488cf:	8b 4d f8             	mov    -0x8(%ebp),%ecx
 80488d2:	89 c2                	mov    %eax,%edx
 80488d4:	01 d2                	add    %edx,%edx
 80488d6:	01 c2                	add    %eax,%edx
 80488d8:	8d 04 95 00 00 00 00 	lea    0x0(,%edx,4),%eax
 80488df:	89 c2                	mov    %eax,%edx
 80488e1:	89 c8                	mov    %ecx,%eax
 80488e3:	c1 e0 03             	shl    $0x3,%eax
 80488e6:	01 c8                	add    %ecx,%eax
 80488e8:	c1 e0 02             	shl    $0x2,%eax
 80488eb:	01 d0                	add    %edx,%eax
 80488ed:	05 20 af 06 08       	add    $0x806af20,%eax
 80488f2:	c7 40 08 12 00 00 00 	movl   $0x12,0x8(%eax)
 80488f9:	e9 a6 01 00 00       	jmp    8048aa4 <init_block+0x406>
 80488fe:	8b 45 f4             	mov    -0xc(%ebp),%eax
 8048901:	8b 4d f8             	mov    -0x8(%ebp),%ecx
 8048904:	89 c2                	mov    %eax,%edx
 8048906:	01 d2                	add    %edx,%edx
 8048908:	01 c2                	add    %eax,%edx
 804890a:	8d 04 95 00 00 00 00 	lea    0x0(,%edx,4),%eax
 8048911:	89 c2                	mov    %eax,%edx
 8048913:	89 c8                	mov    %ecx,%eax
 8048915:	c1 e0 03             	shl    $0x3,%eax
 8048918:	01 c8                	add    %ecx,%eax
 804891a:	c1 e0 02             	shl    $0x2,%eax
 804891d:	01 d0                	add    %edx,%eax
 804891f:	05 20 af 06 08       	add    $0x806af20,%eax
 8048924:	8b 00                	mov    (%eax),%eax
 8048926:	83 f8 06             	cmp    $0x6,%eax
 8048929:	75 32                	jne    804895d <init_block+0x2bf>
 804892b:	8b 45 f4             	mov    -0xc(%ebp),%eax
 804892e:	8b 4d f8             	mov    -0x8(%ebp),%ecx
 8048931:	89 c2                	mov    %eax,%edx
 8048933:	01 d2                	add    %edx,%edx
 8048935:	01 c2                	add    %eax,%edx
 8048937:	8d 04 95 00 00 00 00 	lea    0x0(,%edx,4),%eax
 804893e:	89 c2                	mov    %eax,%edx
 8048940:	89 c8                	mov    %ecx,%eax
 8048942:	c1 e0 03             	shl    $0x3,%eax
 8048945:	01 c8                	add    %ecx,%eax
 8048947:	c1 e0 02             	shl    $0x2,%eax
 804894a:	01 d0                	add    %edx,%eax
 804894c:	05 20 af 06 08       	add    $0x806af20,%eax
 8048951:	c7 40 08 03 00 00 00 	movl   $0x3,0x8(%eax)
 8048958:	e9 47 01 00 00       	jmp    8048aa4 <init_block+0x406>
 804895d:	8b 45 f4             	mov    -0xc(%ebp),%eax
 8048960:	8b 4d f8             	mov    -0x8(%ebp),%ecx
 8048963:	89 c2                	mov    %eax,%edx
 8048965:	01 d2                	add    %edx,%edx
 8048967:	01 c2                	add    %eax,%edx
 8048969:	8d 04 95 00 00 00 00 	lea    0x0(,%edx,4),%eax
 8048970:	89 c2                	mov    %eax,%edx
 8048972:	89 c8                	mov    %ecx,%eax
 8048974:	c1 e0 03             	shl    $0x3,%eax
 8048977:	01 c8                	add    %ecx,%eax
 8048979:	c1 e0 02             	shl    $0x2,%eax
 804897c:	01 d0                	add    %edx,%eax
 804897e:	05 20 af 06 08       	add    $0x806af20,%eax
 8048983:	8b 00                	mov    (%eax),%eax
 8048985:	83 f8 07             	cmp    $0x7,%eax
 8048988:	75 32                	jne    80489bc <init_block+0x31e>
 804898a:	8b 45 f4             	mov    -0xc(%ebp),%eax
 804898d:	8b 4d f8             	mov    -0x8(%ebp),%ecx
 8048990:	89 c2                	mov    %eax,%edx
 8048992:	01 d2                	add    %edx,%edx
 8048994:	01 c2                	add    %eax,%edx
 8048996:	8d 04 95 00 00 00 00 	lea    0x0(,%edx,4),%eax
 804899d:	89 c2                	mov    %eax,%edx
 804899f:	89 c8                	mov    %ecx,%eax
 80489a1:	c1 e0 03             	shl    $0x3,%eax
 80489a4:	01 c8                	add    %ecx,%eax
 80489a6:	c1 e0 02             	shl    $0x2,%eax
 80489a9:	01 d0                	add    %edx,%eax
 80489ab:	05 20 af 06 08       	add    $0x806af20,%eax
 80489b0:	c7 40 08 19 00 00 00 	movl   $0x19,0x8(%eax)
 80489b7:	e9 e8 00 00 00       	jmp    8048aa4 <init_block+0x406>
 80489bc:	8b 45 f4             	mov    -0xc(%ebp),%eax
 80489bf:	8b 4d f8             	mov    -0x8(%ebp),%ecx
 80489c2:	89 c2                	mov    %eax,%edx
 80489c4:	01 d2                	add    %edx,%edx
 80489c6:	01 c2                	add    %eax,%edx
 80489c8:	8d 04 95 00 00 00 00 	lea    0x0(,%edx,4),%eax
 80489cf:	89 c2                	mov    %eax,%edx
 80489d1:	89 c8                	mov    %ecx,%eax
 80489d3:	c1 e0 03             	shl    $0x3,%eax
 80489d6:	01 c8                	add    %ecx,%eax
 80489d8:	c1 e0 02             	shl    $0x2,%eax
 80489db:	01 d0                	add    %edx,%eax
 80489dd:	05 20 af 06 08       	add    $0x806af20,%eax
 80489e2:	8b 00                	mov    (%eax),%eax
 80489e4:	83 f8 08             	cmp    $0x8,%eax
 80489e7:	75 32                	jne    8048a1b <init_block+0x37d>
 80489e9:	8b 45 f4             	mov    -0xc(%ebp),%eax
 80489ec:	8b 4d f8             	mov    -0x8(%ebp),%ecx
 80489ef:	89 c2                	mov    %eax,%edx
 80489f1:	01 d2                	add    %edx,%edx
 80489f3:	01 c2                	add    %eax,%edx
 80489f5:	8d 04 95 00 00 00 00 	lea    0x0(,%edx,4),%eax
 80489fc:	89 c2                	mov    %eax,%edx
 80489fe:	89 c8                	mov    %ecx,%eax
 8048a00:	c1 e0 03             	shl    $0x3,%eax
 8048a03:	01 c8                	add    %ecx,%eax
 8048a05:	c1 e0 02             	shl    $0x2,%eax
 8048a08:	01 d0                	add    %edx,%eax
 8048a0a:	05 20 af 06 08       	add    $0x806af20,%eax
 8048a0f:	c7 40 08 17 00 00 00 	movl   $0x17,0x8(%eax)
 8048a16:	e9 89 00 00 00       	jmp    8048aa4 <init_block+0x406>
 8048a1b:	8b 45 f4             	mov    -0xc(%ebp),%eax
 8048a1e:	8b 4d f8             	mov    -0x8(%ebp),%ecx
 8048a21:	89 c2                	mov    %eax,%edx
 8048a23:	01 d2                	add    %edx,%edx
 8048a25:	01 c2                	add    %eax,%edx
 8048a27:	8d 04 95 00 00 00 00 	lea    0x0(,%edx,4),%eax
 8048a2e:	89 c2                	mov    %eax,%edx
 8048a30:	89 c8                	mov    %ecx,%eax
 8048a32:	c1 e0 03             	shl    $0x3,%eax
 8048a35:	01 c8                	add    %ecx,%eax
 8048a37:	c1 e0 02             	shl    $0x2,%eax
 8048a3a:	01 d0                	add    %edx,%eax
 8048a3c:	05 20 af 06 08       	add    $0x806af20,%eax
 8048a41:	8b 00                	mov    (%eax),%eax
 8048a43:	83 f8 09             	cmp    $0x9,%eax
 8048a46:	75 2f                	jne    8048a77 <init_block+0x3d9>
 8048a48:	8b 45 f4             	mov    -0xc(%ebp),%eax
 8048a4b:	8b 4d f8             	mov    -0x8(%ebp),%ecx
 8048a4e:	89 c2                	mov    %eax,%edx
 8048a50:	01 d2                	add    %edx,%edx
 8048a52:	01 c2                	add    %eax,%edx
 8048a54:	8d 04 95 00 00 00 00 	lea    0x0(,%edx,4),%eax
 8048a5b:	89 c2                	mov    %eax,%edx
 8048a5d:	89 c8                	mov    %ecx,%eax
 8048a5f:	c1 e0 03             	shl    $0x3,%eax
 8048a62:	01 c8                	add    %ecx,%eax
 8048a64:	c1 e0 02             	shl    $0x2,%eax
 8048a67:	01 d0                	add    %edx,%eax
 8048a69:	05 20 af 06 08       	add    $0x806af20,%eax
 8048a6e:	c7 40 08 02 00 00 00 	movl   $0x2,0x8(%eax)
 8048a75:	eb 2d                	jmp    8048aa4 <init_block+0x406>
 8048a77:	8b 45 f4             	mov    -0xc(%ebp),%eax
 8048a7a:	8b 4d f8             	mov    -0x8(%ebp),%ecx
 8048a7d:	89 c2                	mov    %eax,%edx
 8048a7f:	01 d2                	add    %edx,%edx
 8048a81:	01 c2                	add    %eax,%edx
 8048a83:	8d 04 95 00 00 00 00 	lea    0x0(,%edx,4),%eax
 8048a8a:	89 c2                	mov    %eax,%edx
 8048a8c:	89 c8                	mov    %ecx,%eax
 8048a8e:	c1 e0 03             	shl    $0x3,%eax
 8048a91:	01 c8                	add    %ecx,%eax
 8048a93:	c1 e0 02             	shl    $0x2,%eax
 8048a96:	01 d0                	add    %edx,%eax
 8048a98:	05 20 af 06 08       	add    $0x806af20,%eax
 8048a9d:	c7 40 08 1e 00 00 00 	movl   $0x1e,0x8(%eax)
 8048aa4:	83 45 f4 01          	addl   $0x1,-0xc(%ebp)
 8048aa8:	83 7d f4 02          	cmpl   $0x2,-0xc(%ebp)
 8048aac:	0f 8e 0b fc ff ff    	jle    80486bd <init_block+0x1f>
 8048ab2:	83 45 f8 01          	addl   $0x1,-0x8(%ebp)
 8048ab6:	83 7d f8 02          	cmpl   $0x2,-0x8(%ebp)
 8048aba:	0f 8e f1 fb ff ff    	jle    80486b1 <init_block+0x13>
 8048ac0:	83 c4 10             	add    $0x10,%esp
 8048ac3:	5b                   	pop    %ebx
 8048ac4:	5d                   	pop    %ebp
 8048ac5:	c3                   	ret    

08048ac6 <judge_end>:
 8048ac6:	55                   	push   %ebp
 8048ac7:	89 e5                	mov    %esp,%ebp
 8048ac9:	83 ec 20             	sub    $0x20,%esp
 8048acc:	c6 45 f7 01          	movb   $0x1,-0x9(%ebp)
 8048ad0:	c6 45 ec 00          	movb   $0x0,-0x14(%ebp)
 8048ad4:	a1 24 af 06 08       	mov    0x806af24,%eax
 8048ad9:	85 c0                	test   %eax,%eax
 8048adb:	74 33                	je     8048b10 <judge_end+0x4a>
 8048add:	8b 15 24 af 06 08    	mov    0x806af24,%edx
 8048ae3:	a1 30 af 06 08       	mov    0x806af30,%eax
 8048ae8:	39 c2                	cmp    %eax,%edx
 8048aea:	75 24                	jne    8048b10 <judge_end+0x4a>
 8048aec:	8b 15 30 af 06 08    	mov    0x806af30,%edx
 8048af2:	a1 3c af 06 08       	mov    0x806af3c,%eax
 8048af7:	39 c2                	cmp    %eax,%edx
 8048af9:	75 15                	jne    8048b10 <judge_end+0x4a>
 8048afb:	c6 45 ec 01          	movb   $0x1,-0x14(%ebp)
 8048aff:	a1 24 af 06 08       	mov    0x806af24,%eax
 8048b04:	89 45 f0             	mov    %eax,-0x10(%ebp)
 8048b07:	c6 45 f7 00          	movb   $0x0,-0x9(%ebp)
 8048b0b:	e9 03 02 00 00       	jmp    8048d13 <judge_end+0x24d>
 8048b10:	a1 24 af 06 08       	mov    0x806af24,%eax
 8048b15:	85 c0                	test   %eax,%eax
 8048b17:	74 33                	je     8048b4c <judge_end+0x86>
 8048b19:	8b 15 24 af 06 08    	mov    0x806af24,%edx
 8048b1f:	a1 48 af 06 08       	mov    0x806af48,%eax
 8048b24:	39 c2                	cmp    %eax,%edx
 8048b26:	75 24                	jne    8048b4c <judge_end+0x86>
 8048b28:	8b 15 24 af 06 08    	mov    0x806af24,%edx
 8048b2e:	a1 6c af 06 08       	mov    0x806af6c,%eax
 8048b33:	39 c2                	cmp    %eax,%edx
 8048b35:	75 15                	jne    8048b4c <judge_end+0x86>
 8048b37:	c6 45 ec 01          	movb   $0x1,-0x14(%ebp)
 8048b3b:	a1 24 af 06 08       	mov    0x806af24,%eax
 8048b40:	89 45 f0             	mov    %eax,-0x10(%ebp)
 8048b43:	c6 45 f7 00          	movb   $0x0,-0x9(%ebp)
 8048b47:	e9 c7 01 00 00       	jmp    8048d13 <judge_end+0x24d>
 8048b4c:	a1 6c af 06 08       	mov    0x806af6c,%eax
 8048b51:	85 c0                	test   %eax,%eax
 8048b53:	74 33                	je     8048b88 <judge_end+0xc2>
 8048b55:	8b 15 6c af 06 08    	mov    0x806af6c,%edx
 8048b5b:	a1 78 af 06 08       	mov    0x806af78,%eax
 8048b60:	39 c2                	cmp    %eax,%edx
 8048b62:	75 24                	jne    8048b88 <judge_end+0xc2>
 8048b64:	8b 15 6c af 06 08    	mov    0x806af6c,%edx
 8048b6a:	a1 84 af 06 08       	mov    0x806af84,%eax
 8048b6f:	39 c2                	cmp    %eax,%edx
 8048b71:	75 15                	jne    8048b88 <judge_end+0xc2>
 8048b73:	c6 45 ec 01          	movb   $0x1,-0x14(%ebp)
 8048b77:	a1 6c af 06 08       	mov    0x806af6c,%eax
 8048b7c:	89 45 f0             	mov    %eax,-0x10(%ebp)
 8048b7f:	c6 45 f7 00          	movb   $0x0,-0x9(%ebp)
 8048b83:	e9 8b 01 00 00       	jmp    8048d13 <judge_end+0x24d>
 8048b88:	a1 3c af 06 08       	mov    0x806af3c,%eax
 8048b8d:	85 c0                	test   %eax,%eax
 8048b8f:	74 33                	je     8048bc4 <judge_end+0xfe>
 8048b91:	8b 15 3c af 06 08    	mov    0x806af3c,%edx
 8048b97:	a1 60 af 06 08       	mov    0x806af60,%eax
 8048b9c:	39 c2                	cmp    %eax,%edx
 8048b9e:	75 24                	jne    8048bc4 <judge_end+0xfe>
 8048ba0:	8b 15 3c af 06 08    	mov    0x806af3c,%edx
 8048ba6:	a1 84 af 06 08       	mov    0x806af84,%eax
 8048bab:	39 c2                	cmp    %eax,%edx
 8048bad:	75 15                	jne    8048bc4 <judge_end+0xfe>
 8048baf:	c6 45 ec 01          	movb   $0x1,-0x14(%ebp)
 8048bb3:	a1 3c af 06 08       	mov    0x806af3c,%eax
 8048bb8:	89 45 f0             	mov    %eax,-0x10(%ebp)
 8048bbb:	c6 45 f7 00          	movb   $0x0,-0x9(%ebp)
 8048bbf:	e9 4f 01 00 00       	jmp    8048d13 <judge_end+0x24d>
 8048bc4:	a1 48 af 06 08       	mov    0x806af48,%eax
 8048bc9:	85 c0                	test   %eax,%eax
 8048bcb:	74 33                	je     8048c00 <judge_end+0x13a>
 8048bcd:	8b 15 48 af 06 08    	mov    0x806af48,%edx
 8048bd3:	a1 54 af 06 08       	mov    0x806af54,%eax
 8048bd8:	39 c2                	cmp    %eax,%edx
 8048bda:	75 24                	jne    8048c00 <judge_end+0x13a>
 8048bdc:	8b 15 48 af 06 08    	mov    0x806af48,%edx
 8048be2:	a1 60 af 06 08       	mov    0x806af60,%eax
 8048be7:	39 c2                	cmp    %eax,%edx
 8048be9:	75 15                	jne    8048c00 <judge_end+0x13a>
 8048beb:	c6 45 ec 01          	movb   $0x1,-0x14(%ebp)
 8048bef:	a1 48 af 06 08       	mov    0x806af48,%eax
 8048bf4:	89 45 f0             	mov    %eax,-0x10(%ebp)
 8048bf7:	c6 45 f7 00          	movb   $0x0,-0x9(%ebp)
 8048bfb:	e9 13 01 00 00       	jmp    8048d13 <judge_end+0x24d>
 8048c00:	a1 30 af 06 08       	mov    0x806af30,%eax
 8048c05:	85 c0                	test   %eax,%eax
 8048c07:	74 33                	je     8048c3c <judge_end+0x176>
 8048c09:	8b 15 30 af 06 08    	mov    0x806af30,%edx
 8048c0f:	a1 54 af 06 08       	mov    0x806af54,%eax
 8048c14:	39 c2                	cmp    %eax,%edx
 8048c16:	75 24                	jne    8048c3c <judge_end+0x176>
 8048c18:	8b 15 30 af 06 08    	mov    0x806af30,%edx
 8048c1e:	a1 78 af 06 08       	mov    0x806af78,%eax
 8048c23:	39 c2                	cmp    %eax,%edx
 8048c25:	75 15                	jne    8048c3c <judge_end+0x176>
 8048c27:	c6 45 ec 01          	movb   $0x1,-0x14(%ebp)
 8048c2b:	a1 30 af 06 08       	mov    0x806af30,%eax
 8048c30:	89 45 f0             	mov    %eax,-0x10(%ebp)
 8048c33:	c6 45 f7 00          	movb   $0x0,-0x9(%ebp)
 8048c37:	e9 d7 00 00 00       	jmp    8048d13 <judge_end+0x24d>
 8048c3c:	a1 24 af 06 08       	mov    0x806af24,%eax
 8048c41:	85 c0                	test   %eax,%eax
 8048c43:	74 33                	je     8048c78 <judge_end+0x1b2>
 8048c45:	8b 15 24 af 06 08    	mov    0x806af24,%edx
 8048c4b:	a1 54 af 06 08       	mov    0x806af54,%eax
 8048c50:	39 c2                	cmp    %eax,%edx
 8048c52:	75 24                	jne    8048c78 <judge_end+0x1b2>
 8048c54:	8b 15 24 af 06 08    	mov    0x806af24,%edx
 8048c5a:	a1 84 af 06 08       	mov    0x806af84,%eax
 8048c5f:	39 c2                	cmp    %eax,%edx
 8048c61:	75 15                	jne    8048c78 <judge_end+0x1b2>
 8048c63:	c6 45 ec 01          	movb   $0x1,-0x14(%ebp)
 8048c67:	a1 24 af 06 08       	mov    0x806af24,%eax
 8048c6c:	89 45 f0             	mov    %eax,-0x10(%ebp)
 8048c6f:	c6 45 f7 00          	movb   $0x0,-0x9(%ebp)
 8048c73:	e9 9b 00 00 00       	jmp    8048d13 <judge_end+0x24d>
 8048c78:	a1 3c af 06 08       	mov    0x806af3c,%eax
 8048c7d:	85 c0                	test   %eax,%eax
 8048c7f:	74 30                	je     8048cb1 <judge_end+0x1eb>
 8048c81:	8b 15 3c af 06 08    	mov    0x806af3c,%edx
 8048c87:	a1 54 af 06 08       	mov    0x806af54,%eax
 8048c8c:	39 c2                	cmp    %eax,%edx
 8048c8e:	75 21                	jne    8048cb1 <judge_end+0x1eb>
 8048c90:	8b 15 3c af 06 08    	mov    0x806af3c,%edx
 8048c96:	a1 6c af 06 08       	mov    0x806af6c,%eax
 8048c9b:	39 c2                	cmp    %eax,%edx
 8048c9d:	75 12                	jne    8048cb1 <judge_end+0x1eb>
 8048c9f:	c6 45 ec 01          	movb   $0x1,-0x14(%ebp)
 8048ca3:	a1 3c af 06 08       	mov    0x806af3c,%eax
 8048ca8:	89 45 f0             	mov    %eax,-0x10(%ebp)
 8048cab:	c6 45 f7 00          	movb   $0x0,-0x9(%ebp)
 8048caf:	eb 62                	jmp    8048d13 <judge_end+0x24d>
 8048cb1:	c6 45 ec 00          	movb   $0x0,-0x14(%ebp)
 8048cb5:	c7 45 f0 00 00 00 00 	movl   $0x0,-0x10(%ebp)
 8048cbc:	c7 45 fc 00 00 00 00 	movl   $0x0,-0x4(%ebp)
 8048cc3:	eb 48                	jmp    8048d0d <judge_end+0x247>
 8048cc5:	c7 45 f8 00 00 00 00 	movl   $0x0,-0x8(%ebp)
 8048ccc:	eb 35                	jmp    8048d03 <judge_end+0x23d>
 8048cce:	8b 45 f8             	mov    -0x8(%ebp),%eax
 8048cd1:	8b 4d fc             	mov    -0x4(%ebp),%ecx
 8048cd4:	89 c2                	mov    %eax,%edx
 8048cd6:	01 d2                	add    %edx,%edx
 8048cd8:	01 c2                	add    %eax,%edx
 8048cda:	8d 04 95 00 00 00 00 	lea    0x0(,%edx,4),%eax
 8048ce1:	89 c2                	mov    %eax,%edx
 8048ce3:	89 c8                	mov    %ecx,%eax
 8048ce5:	c1 e0 03             	shl    $0x3,%eax
 8048ce8:	01 c8                	add    %ecx,%eax
 8048cea:	c1 e0 02             	shl    $0x2,%eax
 8048ced:	01 d0                	add    %edx,%eax
 8048cef:	05 20 af 06 08       	add    $0x806af20,%eax
 8048cf4:	8b 40 04             	mov    0x4(%eax),%eax
 8048cf7:	85 c0                	test   %eax,%eax
 8048cf9:	75 04                	jne    8048cff <judge_end+0x239>
 8048cfb:	c6 45 f7 00          	movb   $0x0,-0x9(%ebp)
 8048cff:	83 45 f8 01          	addl   $0x1,-0x8(%ebp)
 8048d03:	83 7d f8 02          	cmpl   $0x2,-0x8(%ebp)
 8048d07:	7e c5                	jle    8048cce <judge_end+0x208>
 8048d09:	83 45 fc 01          	addl   $0x1,-0x4(%ebp)
 8048d0d:	83 7d fc 02          	cmpl   $0x2,-0x4(%ebp)
 8048d11:	7e b2                	jle    8048cc5 <judge_end+0x1ff>
 8048d13:	80 7d f7 00          	cmpb   $0x0,-0x9(%ebp)
 8048d17:	74 0b                	je     8048d24 <judge_end+0x25e>
 8048d19:	c6 45 ec 01          	movb   $0x1,-0x14(%ebp)
 8048d1d:	c7 45 f0 03 00 00 00 	movl   $0x3,-0x10(%ebp)
 8048d24:	8b 4d 08             	mov    0x8(%ebp),%ecx
 8048d27:	8b 45 ec             	mov    -0x14(%ebp),%eax
 8048d2a:	8b 55 f0             	mov    -0x10(%ebp),%edx
 8048d2d:	89 01                	mov    %eax,(%ecx)
 8048d2f:	89 51 04             	mov    %edx,0x4(%ecx)
 8048d32:	8b 45 08             	mov    0x8(%ebp),%eax
 8048d35:	c9                   	leave  
 8048d36:	c2 04 00             	ret    $0x4

08048d39 <game_loop>:
 8048d39:	55                   	push   %ebp
 8048d3a:	89 e5                	mov    %esp,%ebp
 8048d3c:	83 ec 38             	sub    $0x38,%esp
 8048d3f:	c7 45 e8 00 00 00 00 	movl   $0x0,-0x18(%ebp)
 8048d46:	c7 45 f4 00 00 00 00 	movl   $0x0,-0xc(%ebp)
 8048d4d:	e9 9d 01 00 00       	jmp    8048eef <game_loop+0x1b6>
 8048d52:	8b 45 f4             	mov    -0xc(%ebp),%eax
 8048d55:	89 04 24             	mov    %eax,(%esp)
 8048d58:	e8 5a f4 ff ff       	call   80481b7 <query_key>
 8048d5d:	84 c0                	test   %al,%al
 8048d5f:	0f 84 86 01 00 00    	je     8048eeb <game_loop+0x1b2>
 8048d65:	c7 45 f0 00 00 00 00 	movl   $0x0,-0x10(%ebp)
 8048d6c:	e9 70 01 00 00       	jmp    8048ee1 <game_loop+0x1a8>
 8048d71:	c7 45 ec 00 00 00 00 	movl   $0x0,-0x14(%ebp)
 8048d78:	e9 56 01 00 00       	jmp    8048ed3 <game_loop+0x19a>
 8048d7d:	8b 45 ec             	mov    -0x14(%ebp),%eax
 8048d80:	8b 4d f0             	mov    -0x10(%ebp),%ecx
 8048d83:	89 c2                	mov    %eax,%edx
 8048d85:	01 d2                	add    %edx,%edx
 8048d87:	01 c2                	add    %eax,%edx
 8048d89:	8d 04 95 00 00 00 00 	lea    0x0(,%edx,4),%eax
 8048d90:	89 c2                	mov    %eax,%edx
 8048d92:	89 c8                	mov    %ecx,%eax
 8048d94:	c1 e0 03             	shl    $0x3,%eax
 8048d97:	01 c8                	add    %ecx,%eax
 8048d99:	c1 e0 02             	shl    $0x2,%eax
 8048d9c:	01 d0                	add    %edx,%eax
 8048d9e:	05 20 af 06 08       	add    $0x806af20,%eax
 8048da3:	8b 40 08             	mov    0x8(%eax),%eax
 8048da6:	3b 45 f4             	cmp    -0xc(%ebp),%eax
 8048da9:	0f 85 20 01 00 00    	jne    8048ecf <game_loop+0x196>
 8048daf:	8b 45 ec             	mov    -0x14(%ebp),%eax
 8048db2:	8b 4d f0             	mov    -0x10(%ebp),%ecx
 8048db5:	89 c2                	mov    %eax,%edx
 8048db7:	01 d2                	add    %edx,%edx
 8048db9:	01 c2                	add    %eax,%edx
 8048dbb:	8d 04 95 00 00 00 00 	lea    0x0(,%edx,4),%eax
 8048dc2:	89 c2                	mov    %eax,%edx
 8048dc4:	89 c8                	mov    %ecx,%eax
 8048dc6:	c1 e0 03             	shl    $0x3,%eax
 8048dc9:	01 c8                	add    %ecx,%eax
 8048dcb:	c1 e0 02             	shl    $0x2,%eax
 8048dce:	01 d0                	add    %edx,%eax
 8048dd0:	05 20 af 06 08       	add    $0x806af20,%eax
 8048dd5:	8b 40 04             	mov    0x4(%eax),%eax
 8048dd8:	85 c0                	test   %eax,%eax
 8048dda:	0f 85 ef 00 00 00    	jne    8048ecf <game_loop+0x196>
 8048de0:	8b 45 e8             	mov    -0x18(%ebp),%eax
 8048de3:	83 e0 01             	and    $0x1,%eax
 8048de6:	85 c0                	test   %eax,%eax
 8048de8:	75 6c                	jne    8048e56 <game_loop+0x11d>
 8048dea:	8b 45 ec             	mov    -0x14(%ebp),%eax
 8048ded:	8b 4d f0             	mov    -0x10(%ebp),%ecx
 8048df0:	89 c2                	mov    %eax,%edx
 8048df2:	01 d2                	add    %edx,%edx
 8048df4:	01 c2                	add    %eax,%edx
 8048df6:	8d 04 95 00 00 00 00 	lea    0x0(,%edx,4),%eax
 8048dfd:	89 c2                	mov    %eax,%edx
 8048dff:	89 c8                	mov    %ecx,%eax
 8048e01:	c1 e0 03             	shl    $0x3,%eax
 8048e04:	01 c8                	add    %ecx,%eax
 8048e06:	c1 e0 02             	shl    $0x2,%eax
 8048e09:	01 d0                	add    %edx,%eax
 8048e0b:	05 20 af 06 08       	add    $0x806af20,%eax
 8048e10:	8b 00                	mov    (%eax),%eax
 8048e12:	c7 44 24 04 0f 00 00 	movl   $0xf,0x4(%esp)
 8048e19:	00 
 8048e1a:	89 04 24             	mov    %eax,(%esp)
 8048e1d:	e8 43 f6 ff ff       	call   8048465 <draw_block>
 8048e22:	8b 45 ec             	mov    -0x14(%ebp),%eax
 8048e25:	8b 4d f0             	mov    -0x10(%ebp),%ecx
 8048e28:	89 c2                	mov    %eax,%edx
 8048e2a:	01 d2                	add    %edx,%edx
 8048e2c:	01 c2                	add    %eax,%edx
 8048e2e:	8d 04 95 00 00 00 00 	lea    0x0(,%edx,4),%eax
 8048e35:	89 c2                	mov    %eax,%edx
 8048e37:	89 c8                	mov    %ecx,%eax
 8048e39:	c1 e0 03             	shl    $0x3,%eax
 8048e3c:	01 c8                	add    %ecx,%eax
 8048e3e:	c1 e0 02             	shl    $0x2,%eax
 8048e41:	01 d0                	add    %edx,%eax
 8048e43:	05 20 af 06 08       	add    $0x806af20,%eax
 8048e48:	c7 40 04 01 00 00 00 	movl   $0x1,0x4(%eax)
 8048e4f:	e8 25 f4 ff ff       	call   8048279 <display_buffer>
 8048e54:	eb 6a                	jmp    8048ec0 <game_loop+0x187>
 8048e56:	8b 45 ec             	mov    -0x14(%ebp),%eax
 8048e59:	8b 4d f0             	mov    -0x10(%ebp),%ecx
 8048e5c:	89 c2                	mov    %eax,%edx
 8048e5e:	01 d2                	add    %edx,%edx
 8048e60:	01 c2                	add    %eax,%edx
 8048e62:	8d 04 95 00 00 00 00 	lea    0x0(,%edx,4),%eax
 8048e69:	89 c2                	mov    %eax,%edx
 8048e6b:	89 c8                	mov    %ecx,%eax
 8048e6d:	c1 e0 03             	shl    $0x3,%eax
 8048e70:	01 c8                	add    %ecx,%eax
 8048e72:	c1 e0 02             	shl    $0x2,%eax
 8048e75:	01 d0                	add    %edx,%eax
 8048e77:	05 20 af 06 08       	add    $0x806af20,%eax
 8048e7c:	8b 00                	mov    (%eax),%eax
 8048e7e:	c7 44 24 04 01 00 00 	movl   $0x1,0x4(%esp)
 8048e85:	00 
 8048e86:	89 04 24             	mov    %eax,(%esp)
 8048e89:	e8 d7 f5 ff ff       	call   8048465 <draw_block>
 8048e8e:	8b 45 ec             	mov    -0x14(%ebp),%eax
 8048e91:	8b 4d f0             	mov    -0x10(%ebp),%ecx
 8048e94:	89 c2                	mov    %eax,%edx
 8048e96:	01 d2                	add    %edx,%edx
 8048e98:	01 c2                	add    %eax,%edx
 8048e9a:	8d 04 95 00 00 00 00 	lea    0x0(,%edx,4),%eax
 8048ea1:	89 c2                	mov    %eax,%edx
 8048ea3:	89 c8                	mov    %ecx,%eax
 8048ea5:	c1 e0 03             	shl    $0x3,%eax
 8048ea8:	01 c8                	add    %ecx,%eax
 8048eaa:	c1 e0 02             	shl    $0x2,%eax
 8048ead:	01 d0                	add    %edx,%eax
 8048eaf:	05 20 af 06 08       	add    $0x806af20,%eax
 8048eb4:	c7 40 04 02 00 00 00 	movl   $0x2,0x4(%eax)
 8048ebb:	e8 b9 f3 ff ff       	call   8048279 <display_buffer>
 8048ec0:	83 45 e8 01          	addl   $0x1,-0x18(%ebp)
 8048ec4:	8b 45 f4             	mov    -0xc(%ebp),%eax
 8048ec7:	89 04 24             	mov    %eax,(%esp)
 8048eca:	e8 d8 f2 ff ff       	call   80481a7 <release_key>
 8048ecf:	83 45 ec 01          	addl   $0x1,-0x14(%ebp)
 8048ed3:	83 7d ec 02          	cmpl   $0x2,-0x14(%ebp)
 8048ed7:	0f 8e a0 fe ff ff    	jle    8048d7d <game_loop+0x44>
 8048edd:	83 45 f0 01          	addl   $0x1,-0x10(%ebp)
 8048ee1:	83 7d f0 02          	cmpl   $0x2,-0x10(%ebp)
 8048ee5:	0f 8e 86 fe ff ff    	jle    8048d71 <game_loop+0x38>
 8048eeb:	83 45 f4 01          	addl   $0x1,-0xc(%ebp)
 8048eef:	83 7d f4 19          	cmpl   $0x19,-0xc(%ebp)
 8048ef3:	0f 8e 59 fe ff ff    	jle    8048d52 <game_loop+0x19>
 8048ef9:	8d 45 e0             	lea    -0x20(%ebp),%eax
 8048efc:	89 04 24             	mov    %eax,(%esp)
 8048eff:	e8 c2 fb ff ff       	call   8048ac6 <judge_end>
 8048f04:	83 ec 04             	sub    $0x4,%esp
 8048f07:	0f b6 45 e0          	movzbl -0x20(%ebp),%eax
 8048f0b:	84 c0                	test   %al,%al
 8048f0d:	74 0f                	je     8048f1e <game_loop+0x1e5>
 8048f0f:	8b 45 e4             	mov    -0x1c(%ebp),%eax
 8048f12:	83 f8 01             	cmp    $0x1,%eax
 8048f15:	75 07                	jne    8048f1e <game_loop+0x1e5>
 8048f17:	e8 15 f4 ff ff       	call   8048331 <white_screen>
 8048f1c:	eb 33                	jmp    8048f51 <game_loop+0x218>
 8048f1e:	0f b6 45 e0          	movzbl -0x20(%ebp),%eax
 8048f22:	84 c0                	test   %al,%al
 8048f24:	74 0f                	je     8048f35 <game_loop+0x1fc>
 8048f26:	8b 45 e4             	mov    -0x1c(%ebp),%eax
 8048f29:	83 f8 02             	cmp    $0x2,%eax
 8048f2c:	75 07                	jne    8048f35 <game_loop+0x1fc>
 8048f2e:	e8 e2 f3 ff ff       	call   8048315 <blue_screen>
 8048f33:	eb 1c                	jmp    8048f51 <game_loop+0x218>
 8048f35:	0f b6 45 e0          	movzbl -0x20(%ebp),%eax
 8048f39:	84 c0                	test   %al,%al
 8048f3b:	74 0f                	je     8048f4c <game_loop+0x213>
 8048f3d:	8b 45 e4             	mov    -0x1c(%ebp),%eax
 8048f40:	83 f8 03             	cmp    $0x3,%eax
 8048f43:	75 07                	jne    8048f4c <game_loop+0x213>
 8048f45:	e8 1f f4 ff ff       	call   8048369 <yellow_screen>
 8048f4a:	eb 05                	jmp    8048f51 <game_loop+0x218>
 8048f4c:	e9 f5 fd ff ff       	jmp    8048d46 <game_loop+0xd>
 8048f51:	c9                   	leave  
 8048f52:	c3                   	ret    

08048f53 <printnum>:
 8048f53:	55                   	push   %ebp
 8048f54:	89 e5                	mov    %esp,%ebp
 8048f56:	53                   	push   %ebx
 8048f57:	83 ec 34             	sub    $0x34,%esp
 8048f5a:	8b 45 10             	mov    0x10(%ebp),%eax
 8048f5d:	89 45 f0             	mov    %eax,-0x10(%ebp)
 8048f60:	8b 45 14             	mov    0x14(%ebp),%eax
 8048f63:	89 45 f4             	mov    %eax,-0xc(%ebp)
 8048f66:	8b 45 18             	mov    0x18(%ebp),%eax
 8048f69:	ba 00 00 00 00       	mov    $0x0,%edx
 8048f6e:	3b 55 f4             	cmp    -0xc(%ebp),%edx
 8048f71:	77 72                	ja     8048fe5 <printnum+0x92>
 8048f73:	3b 55 f4             	cmp    -0xc(%ebp),%edx
 8048f76:	72 05                	jb     8048f7d <printnum+0x2a>
 8048f78:	3b 45 f0             	cmp    -0x10(%ebp),%eax
 8048f7b:	77 68                	ja     8048fe5 <printnum+0x92>
 8048f7d:	8b 45 1c             	mov    0x1c(%ebp),%eax
 8048f80:	8d 58 ff             	lea    -0x1(%eax),%ebx
 8048f83:	8b 45 18             	mov    0x18(%ebp),%eax
 8048f86:	ba 00 00 00 00       	mov    $0x0,%edx
 8048f8b:	89 44 24 08          	mov    %eax,0x8(%esp)
 8048f8f:	89 54 24 0c          	mov    %edx,0xc(%esp)
 8048f93:	8b 45 f0             	mov    -0x10(%ebp),%eax
 8048f96:	8b 55 f4             	mov    -0xc(%ebp),%edx
 8048f99:	89 04 24             	mov    %eax,(%esp)
 8048f9c:	89 54 24 04          	mov    %edx,0x4(%esp)
 8048fa0:	e8 3b 0d 00 00       	call   8049ce0 <__udivdi3>
 8048fa5:	8b 4d 20             	mov    0x20(%ebp),%ecx
 8048fa8:	89 4c 24 18          	mov    %ecx,0x18(%esp)
 8048fac:	89 5c 24 14          	mov    %ebx,0x14(%esp)
 8048fb0:	8b 4d 18             	mov    0x18(%ebp),%ecx
 8048fb3:	89 4c 24 10          	mov    %ecx,0x10(%esp)
 8048fb7:	89 44 24 08          	mov    %eax,0x8(%esp)
 8048fbb:	89 54 24 0c          	mov    %edx,0xc(%esp)
 8048fbf:	8b 45 0c             	mov    0xc(%ebp),%eax
 8048fc2:	89 44 24 04          	mov    %eax,0x4(%esp)
 8048fc6:	8b 45 08             	mov    0x8(%ebp),%eax
 8048fc9:	89 04 24             	mov    %eax,(%esp)
 8048fcc:	e8 82 ff ff ff       	call   8048f53 <printnum>
 8048fd1:	eb 1c                	jmp    8048fef <printnum+0x9c>
 8048fd3:	8b 45 0c             	mov    0xc(%ebp),%eax
 8048fd6:	89 44 24 04          	mov    %eax,0x4(%esp)
 8048fda:	8b 45 20             	mov    0x20(%ebp),%eax
 8048fdd:	89 04 24             	mov    %eax,(%esp)
 8048fe0:	8b 45 08             	mov    0x8(%ebp),%eax
 8048fe3:	ff d0                	call   *%eax
 8048fe5:	83 6d 1c 01          	subl   $0x1,0x1c(%ebp)
 8048fe9:	83 7d 1c 00          	cmpl   $0x0,0x1c(%ebp)
 8048fed:	7f e4                	jg     8048fd3 <printnum+0x80>
 8048fef:	8b 4d 18             	mov    0x18(%ebp),%ecx
 8048ff2:	bb 00 00 00 00       	mov    $0x0,%ebx
 8048ff7:	8b 45 f0             	mov    -0x10(%ebp),%eax
 8048ffa:	8b 55 f4             	mov    -0xc(%ebp),%edx
 8048ffd:	89 4c 24 08          	mov    %ecx,0x8(%esp)
 8049001:	89 5c 24 0c          	mov    %ebx,0xc(%esp)
 8049005:	89 04 24             	mov    %eax,(%esp)
 8049008:	89 54 24 04          	mov    %edx,0x4(%esp)
 804900c:	e8 ff 0d 00 00       	call   8049e10 <__umoddi3>
 8049011:	05 40 a0 04 08       	add    $0x804a040,%eax
 8049016:	0f b6 00             	movzbl (%eax),%eax
 8049019:	0f be c0             	movsbl %al,%eax
 804901c:	8b 55 0c             	mov    0xc(%ebp),%edx
 804901f:	89 54 24 04          	mov    %edx,0x4(%esp)
 8049023:	89 04 24             	mov    %eax,(%esp)
 8049026:	8b 45 08             	mov    0x8(%ebp),%eax
 8049029:	ff d0                	call   *%eax
 804902b:	83 c4 34             	add    $0x34,%esp
 804902e:	5b                   	pop    %ebx
 804902f:	5d                   	pop    %ebp
 8049030:	c3                   	ret    

08049031 <getuint>:
 8049031:	55                   	push   %ebp
 8049032:	89 e5                	mov    %esp,%ebp
 8049034:	83 7d 0c 01          	cmpl   $0x1,0xc(%ebp)
 8049038:	7e 14                	jle    804904e <getuint+0x1d>
 804903a:	8b 45 08             	mov    0x8(%ebp),%eax
 804903d:	8b 00                	mov    (%eax),%eax
 804903f:	8d 48 08             	lea    0x8(%eax),%ecx
 8049042:	8b 55 08             	mov    0x8(%ebp),%edx
 8049045:	89 0a                	mov    %ecx,(%edx)
 8049047:	8b 50 04             	mov    0x4(%eax),%edx
 804904a:	8b 00                	mov    (%eax),%eax
 804904c:	eb 30                	jmp    804907e <getuint+0x4d>
 804904e:	83 7d 0c 00          	cmpl   $0x0,0xc(%ebp)
 8049052:	74 16                	je     804906a <getuint+0x39>
 8049054:	8b 45 08             	mov    0x8(%ebp),%eax
 8049057:	8b 00                	mov    (%eax),%eax
 8049059:	8d 48 04             	lea    0x4(%eax),%ecx
 804905c:	8b 55 08             	mov    0x8(%ebp),%edx
 804905f:	89 0a                	mov    %ecx,(%edx)
 8049061:	8b 00                	mov    (%eax),%eax
 8049063:	ba 00 00 00 00       	mov    $0x0,%edx
 8049068:	eb 14                	jmp    804907e <getuint+0x4d>
 804906a:	8b 45 08             	mov    0x8(%ebp),%eax
 804906d:	8b 00                	mov    (%eax),%eax
 804906f:	8d 48 04             	lea    0x4(%eax),%ecx
 8049072:	8b 55 08             	mov    0x8(%ebp),%edx
 8049075:	89 0a                	mov    %ecx,(%edx)
 8049077:	8b 00                	mov    (%eax),%eax
 8049079:	ba 00 00 00 00       	mov    $0x0,%edx
 804907e:	5d                   	pop    %ebp
 804907f:	c3                   	ret    

08049080 <getint>:
 8049080:	55                   	push   %ebp
 8049081:	89 e5                	mov    %esp,%ebp
 8049083:	83 7d 0c 01          	cmpl   $0x1,0xc(%ebp)
 8049087:	7e 14                	jle    804909d <getint+0x1d>
 8049089:	8b 45 08             	mov    0x8(%ebp),%eax
 804908c:	8b 00                	mov    (%eax),%eax
 804908e:	8d 48 08             	lea    0x8(%eax),%ecx
 8049091:	8b 55 08             	mov    0x8(%ebp),%edx
 8049094:	89 0a                	mov    %ecx,(%edx)
 8049096:	8b 50 04             	mov    0x4(%eax),%edx
 8049099:	8b 00                	mov    (%eax),%eax
 804909b:	eb 28                	jmp    80490c5 <getint+0x45>
 804909d:	83 7d 0c 00          	cmpl   $0x0,0xc(%ebp)
 80490a1:	74 12                	je     80490b5 <getint+0x35>
 80490a3:	8b 45 08             	mov    0x8(%ebp),%eax
 80490a6:	8b 00                	mov    (%eax),%eax
 80490a8:	8d 48 04             	lea    0x4(%eax),%ecx
 80490ab:	8b 55 08             	mov    0x8(%ebp),%edx
 80490ae:	89 0a                	mov    %ecx,(%edx)
 80490b0:	8b 00                	mov    (%eax),%eax
 80490b2:	99                   	cltd   
 80490b3:	eb 10                	jmp    80490c5 <getint+0x45>
 80490b5:	8b 45 08             	mov    0x8(%ebp),%eax
 80490b8:	8b 00                	mov    (%eax),%eax
 80490ba:	8d 48 04             	lea    0x4(%eax),%ecx
 80490bd:	8b 55 08             	mov    0x8(%ebp),%edx
 80490c0:	89 0a                	mov    %ecx,(%edx)
 80490c2:	8b 00                	mov    (%eax),%eax
 80490c4:	99                   	cltd   
 80490c5:	5d                   	pop    %ebp
 80490c6:	c3                   	ret    

080490c7 <vprintfmt>:
 80490c7:	55                   	push   %ebp
 80490c8:	89 e5                	mov    %esp,%ebp
 80490ca:	56                   	push   %esi
 80490cb:	53                   	push   %ebx
 80490cc:	83 ec 40             	sub    $0x40,%esp
 80490cf:	eb 18                	jmp    80490e9 <vprintfmt+0x22>
 80490d1:	85 db                	test   %ebx,%ebx
 80490d3:	75 05                	jne    80490da <vprintfmt+0x13>
 80490d5:	e9 e9 03 00 00       	jmp    80494c3 <vprintfmt+0x3fc>
 80490da:	8b 45 0c             	mov    0xc(%ebp),%eax
 80490dd:	89 44 24 04          	mov    %eax,0x4(%esp)
 80490e1:	89 1c 24             	mov    %ebx,(%esp)
 80490e4:	8b 45 08             	mov    0x8(%ebp),%eax
 80490e7:	ff d0                	call   *%eax
 80490e9:	8b 45 10             	mov    0x10(%ebp),%eax
 80490ec:	8d 50 01             	lea    0x1(%eax),%edx
 80490ef:	89 55 10             	mov    %edx,0x10(%ebp)
 80490f2:	0f b6 00             	movzbl (%eax),%eax
 80490f5:	0f b6 d8             	movzbl %al,%ebx
 80490f8:	83 fb 25             	cmp    $0x25,%ebx
 80490fb:	75 d4                	jne    80490d1 <vprintfmt+0xa>
 80490fd:	c6 45 db 20          	movb   $0x20,-0x25(%ebp)
 8049101:	c7 45 e4 ff ff ff ff 	movl   $0xffffffff,-0x1c(%ebp)
 8049108:	c7 45 e0 ff ff ff ff 	movl   $0xffffffff,-0x20(%ebp)
 804910f:	c7 45 e8 00 00 00 00 	movl   $0x0,-0x18(%ebp)
 8049116:	c7 45 dc 00 00 00 00 	movl   $0x0,-0x24(%ebp)
 804911d:	8b 45 10             	mov    0x10(%ebp),%eax
 8049120:	8d 50 01             	lea    0x1(%eax),%edx
 8049123:	89 55 10             	mov    %edx,0x10(%ebp)
 8049126:	0f b6 00             	movzbl (%eax),%eax
 8049129:	0f b6 d8             	movzbl %al,%ebx
 804912c:	8d 43 dd             	lea    -0x23(%ebx),%eax
 804912f:	83 f8 55             	cmp    $0x55,%eax
 8049132:	0f 87 5a 03 00 00    	ja     8049492 <vprintfmt+0x3cb>
 8049138:	8b 04 85 64 a0 04 08 	mov    0x804a064(,%eax,4),%eax
 804913f:	ff e0                	jmp    *%eax
 8049141:	c6 45 db 2d          	movb   $0x2d,-0x25(%ebp)
 8049145:	eb d6                	jmp    804911d <vprintfmt+0x56>
 8049147:	c6 45 db 30          	movb   $0x30,-0x25(%ebp)
 804914b:	eb d0                	jmp    804911d <vprintfmt+0x56>
 804914d:	c7 45 e0 00 00 00 00 	movl   $0x0,-0x20(%ebp)
 8049154:	8b 55 e0             	mov    -0x20(%ebp),%edx
 8049157:	89 d0                	mov    %edx,%eax
 8049159:	c1 e0 02             	shl    $0x2,%eax
 804915c:	01 d0                	add    %edx,%eax
 804915e:	01 c0                	add    %eax,%eax
 8049160:	01 d8                	add    %ebx,%eax
 8049162:	83 e8 30             	sub    $0x30,%eax
 8049165:	89 45 e0             	mov    %eax,-0x20(%ebp)
 8049168:	8b 45 10             	mov    0x10(%ebp),%eax
 804916b:	0f b6 00             	movzbl (%eax),%eax
 804916e:	0f be d8             	movsbl %al,%ebx
 8049171:	83 fb 2f             	cmp    $0x2f,%ebx
 8049174:	7e 0b                	jle    8049181 <vprintfmt+0xba>
 8049176:	83 fb 39             	cmp    $0x39,%ebx
 8049179:	7f 06                	jg     8049181 <vprintfmt+0xba>
 804917b:	83 45 10 01          	addl   $0x1,0x10(%ebp)
 804917f:	eb d3                	jmp    8049154 <vprintfmt+0x8d>
 8049181:	eb 33                	jmp    80491b6 <vprintfmt+0xef>
 8049183:	8b 45 14             	mov    0x14(%ebp),%eax
 8049186:	8d 50 04             	lea    0x4(%eax),%edx
 8049189:	89 55 14             	mov    %edx,0x14(%ebp)
 804918c:	8b 00                	mov    (%eax),%eax
 804918e:	89 45 e0             	mov    %eax,-0x20(%ebp)
 8049191:	eb 23                	jmp    80491b6 <vprintfmt+0xef>
 8049193:	83 7d e4 00          	cmpl   $0x0,-0x1c(%ebp)
 8049197:	79 0c                	jns    80491a5 <vprintfmt+0xde>
 8049199:	c7 45 e4 00 00 00 00 	movl   $0x0,-0x1c(%ebp)
 80491a0:	e9 78 ff ff ff       	jmp    804911d <vprintfmt+0x56>
 80491a5:	e9 73 ff ff ff       	jmp    804911d <vprintfmt+0x56>
 80491aa:	c7 45 dc 01 00 00 00 	movl   $0x1,-0x24(%ebp)
 80491b1:	e9 67 ff ff ff       	jmp    804911d <vprintfmt+0x56>
 80491b6:	83 7d e4 00          	cmpl   $0x0,-0x1c(%ebp)
 80491ba:	79 12                	jns    80491ce <vprintfmt+0x107>
 80491bc:	8b 45 e0             	mov    -0x20(%ebp),%eax
 80491bf:	89 45 e4             	mov    %eax,-0x1c(%ebp)
 80491c2:	c7 45 e0 ff ff ff ff 	movl   $0xffffffff,-0x20(%ebp)
 80491c9:	e9 4f ff ff ff       	jmp    804911d <vprintfmt+0x56>
 80491ce:	e9 4a ff ff ff       	jmp    804911d <vprintfmt+0x56>
 80491d3:	83 45 e8 01          	addl   $0x1,-0x18(%ebp)
 80491d7:	e9 41 ff ff ff       	jmp    804911d <vprintfmt+0x56>
 80491dc:	8b 45 14             	mov    0x14(%ebp),%eax
 80491df:	8d 50 04             	lea    0x4(%eax),%edx
 80491e2:	89 55 14             	mov    %edx,0x14(%ebp)
 80491e5:	8b 00                	mov    (%eax),%eax
 80491e7:	8b 55 0c             	mov    0xc(%ebp),%edx
 80491ea:	89 54 24 04          	mov    %edx,0x4(%esp)
 80491ee:	89 04 24             	mov    %eax,(%esp)
 80491f1:	8b 45 08             	mov    0x8(%ebp),%eax
 80491f4:	ff d0                	call   *%eax
 80491f6:	e9 c2 02 00 00       	jmp    80494bd <vprintfmt+0x3f6>
 80491fb:	8b 45 14             	mov    0x14(%ebp),%eax
 80491fe:	8d 50 04             	lea    0x4(%eax),%edx
 8049201:	89 55 14             	mov    %edx,0x14(%ebp)
 8049204:	8b 18                	mov    (%eax),%ebx
 8049206:	85 db                	test   %ebx,%ebx
 8049208:	79 02                	jns    804920c <vprintfmt+0x145>
 804920a:	f7 db                	neg    %ebx
 804920c:	83 fb 07             	cmp    $0x7,%ebx
 804920f:	7f 0b                	jg     804921c <vprintfmt+0x155>
 8049211:	8b 34 9d 20 a0 04 08 	mov    0x804a020(,%ebx,4),%esi
 8049218:	85 f6                	test   %esi,%esi
 804921a:	75 23                	jne    804923f <vprintfmt+0x178>
 804921c:	89 5c 24 0c          	mov    %ebx,0xc(%esp)
 8049220:	c7 44 24 08 51 a0 04 	movl   $0x804a051,0x8(%esp)
 8049227:	08 
 8049228:	8b 45 0c             	mov    0xc(%ebp),%eax
 804922b:	89 44 24 04          	mov    %eax,0x4(%esp)
 804922f:	8b 45 08             	mov    0x8(%ebp),%eax
 8049232:	89 04 24             	mov    %eax,(%esp)
 8049235:	e8 90 02 00 00       	call   80494ca <printfmt>
 804923a:	e9 7e 02 00 00       	jmp    80494bd <vprintfmt+0x3f6>
 804923f:	89 74 24 0c          	mov    %esi,0xc(%esp)
 8049243:	c7 44 24 08 5a a0 04 	movl   $0x804a05a,0x8(%esp)
 804924a:	08 
 804924b:	8b 45 0c             	mov    0xc(%ebp),%eax
 804924e:	89 44 24 04          	mov    %eax,0x4(%esp)
 8049252:	8b 45 08             	mov    0x8(%ebp),%eax
 8049255:	89 04 24             	mov    %eax,(%esp)
 8049258:	e8 6d 02 00 00       	call   80494ca <printfmt>
 804925d:	e9 5b 02 00 00       	jmp    80494bd <vprintfmt+0x3f6>
 8049262:	8b 45 14             	mov    0x14(%ebp),%eax
 8049265:	8d 50 04             	lea    0x4(%eax),%edx
 8049268:	89 55 14             	mov    %edx,0x14(%ebp)
 804926b:	8b 30                	mov    (%eax),%esi
 804926d:	85 f6                	test   %esi,%esi
 804926f:	75 05                	jne    8049276 <vprintfmt+0x1af>
 8049271:	be 5d a0 04 08       	mov    $0x804a05d,%esi
 8049276:	83 7d e4 00          	cmpl   $0x0,-0x1c(%ebp)
 804927a:	7e 37                	jle    80492b3 <vprintfmt+0x1ec>
 804927c:	80 7d db 2d          	cmpb   $0x2d,-0x25(%ebp)
 8049280:	74 31                	je     80492b3 <vprintfmt+0x1ec>
 8049282:	8b 45 e0             	mov    -0x20(%ebp),%eax
 8049285:	89 44 24 04          	mov    %eax,0x4(%esp)
 8049289:	89 34 24             	mov    %esi,(%esp)
 804928c:	e8 58 04 00 00       	call   80496e9 <strnlen>
 8049291:	29 45 e4             	sub    %eax,-0x1c(%ebp)
 8049294:	eb 17                	jmp    80492ad <vprintfmt+0x1e6>
 8049296:	0f be 45 db          	movsbl -0x25(%ebp),%eax
 804929a:	8b 55 0c             	mov    0xc(%ebp),%edx
 804929d:	89 54 24 04          	mov    %edx,0x4(%esp)
 80492a1:	89 04 24             	mov    %eax,(%esp)
 80492a4:	8b 45 08             	mov    0x8(%ebp),%eax
 80492a7:	ff d0                	call   *%eax
 80492a9:	83 6d e4 01          	subl   $0x1,-0x1c(%ebp)
 80492ad:	83 7d e4 00          	cmpl   $0x0,-0x1c(%ebp)
 80492b1:	7f e3                	jg     8049296 <vprintfmt+0x1cf>
 80492b3:	eb 38                	jmp    80492ed <vprintfmt+0x226>
 80492b5:	83 7d dc 00          	cmpl   $0x0,-0x24(%ebp)
 80492b9:	74 1f                	je     80492da <vprintfmt+0x213>
 80492bb:	83 fb 1f             	cmp    $0x1f,%ebx
 80492be:	7e 05                	jle    80492c5 <vprintfmt+0x1fe>
 80492c0:	83 fb 7e             	cmp    $0x7e,%ebx
 80492c3:	7e 15                	jle    80492da <vprintfmt+0x213>
 80492c5:	8b 45 0c             	mov    0xc(%ebp),%eax
 80492c8:	89 44 24 04          	mov    %eax,0x4(%esp)
 80492cc:	c7 04 24 3f 00 00 00 	movl   $0x3f,(%esp)
 80492d3:	8b 45 08             	mov    0x8(%ebp),%eax
 80492d6:	ff d0                	call   *%eax
 80492d8:	eb 0f                	jmp    80492e9 <vprintfmt+0x222>
 80492da:	8b 45 0c             	mov    0xc(%ebp),%eax
 80492dd:	89 44 24 04          	mov    %eax,0x4(%esp)
 80492e1:	89 1c 24             	mov    %ebx,(%esp)
 80492e4:	8b 45 08             	mov    0x8(%ebp),%eax
 80492e7:	ff d0                	call   *%eax
 80492e9:	83 6d e4 01          	subl   $0x1,-0x1c(%ebp)
 80492ed:	89 f0                	mov    %esi,%eax
 80492ef:	8d 70 01             	lea    0x1(%eax),%esi
 80492f2:	0f b6 00             	movzbl (%eax),%eax
 80492f5:	0f be d8             	movsbl %al,%ebx
 80492f8:	85 db                	test   %ebx,%ebx
 80492fa:	74 10                	je     804930c <vprintfmt+0x245>
 80492fc:	83 7d e0 00          	cmpl   $0x0,-0x20(%ebp)
 8049300:	78 b3                	js     80492b5 <vprintfmt+0x1ee>
 8049302:	83 6d e0 01          	subl   $0x1,-0x20(%ebp)
 8049306:	83 7d e0 00          	cmpl   $0x0,-0x20(%ebp)
 804930a:	79 a9                	jns    80492b5 <vprintfmt+0x1ee>
 804930c:	eb 17                	jmp    8049325 <vprintfmt+0x25e>
 804930e:	8b 45 0c             	mov    0xc(%ebp),%eax
 8049311:	89 44 24 04          	mov    %eax,0x4(%esp)
 8049315:	c7 04 24 20 00 00 00 	movl   $0x20,(%esp)
 804931c:	8b 45 08             	mov    0x8(%ebp),%eax
 804931f:	ff d0                	call   *%eax
 8049321:	83 6d e4 01          	subl   $0x1,-0x1c(%ebp)
 8049325:	83 7d e4 00          	cmpl   $0x0,-0x1c(%ebp)
 8049329:	7f e3                	jg     804930e <vprintfmt+0x247>
 804932b:	e9 8d 01 00 00       	jmp    80494bd <vprintfmt+0x3f6>
 8049330:	8b 45 e8             	mov    -0x18(%ebp),%eax
 8049333:	89 44 24 04          	mov    %eax,0x4(%esp)
 8049337:	8d 45 14             	lea    0x14(%ebp),%eax
 804933a:	89 04 24             	mov    %eax,(%esp)
 804933d:	e8 3e fd ff ff       	call   8049080 <getint>
 8049342:	89 45 f0             	mov    %eax,-0x10(%ebp)
 8049345:	89 55 f4             	mov    %edx,-0xc(%ebp)
 8049348:	8b 45 f0             	mov    -0x10(%ebp),%eax
 804934b:	8b 55 f4             	mov    -0xc(%ebp),%edx
 804934e:	85 d2                	test   %edx,%edx
 8049350:	79 26                	jns    8049378 <vprintfmt+0x2b1>
 8049352:	8b 45 0c             	mov    0xc(%ebp),%eax
 8049355:	89 44 24 04          	mov    %eax,0x4(%esp)
 8049359:	c7 04 24 2d 00 00 00 	movl   $0x2d,(%esp)
 8049360:	8b 45 08             	mov    0x8(%ebp),%eax
 8049363:	ff d0                	call   *%eax
 8049365:	8b 45 f0             	mov    -0x10(%ebp),%eax
 8049368:	8b 55 f4             	mov    -0xc(%ebp),%edx
 804936b:	f7 d8                	neg    %eax
 804936d:	83 d2 00             	adc    $0x0,%edx
 8049370:	f7 da                	neg    %edx
 8049372:	89 45 f0             	mov    %eax,-0x10(%ebp)
 8049375:	89 55 f4             	mov    %edx,-0xc(%ebp)
 8049378:	c7 45 ec 0a 00 00 00 	movl   $0xa,-0x14(%ebp)
 804937f:	e9 c5 00 00 00       	jmp    8049449 <vprintfmt+0x382>
 8049384:	8b 45 e8             	mov    -0x18(%ebp),%eax
 8049387:	89 44 24 04          	mov    %eax,0x4(%esp)
 804938b:	8d 45 14             	lea    0x14(%ebp),%eax
 804938e:	89 04 24             	mov    %eax,(%esp)
 8049391:	e8 9b fc ff ff       	call   8049031 <getuint>
 8049396:	89 45 f0             	mov    %eax,-0x10(%ebp)
 8049399:	89 55 f4             	mov    %edx,-0xc(%ebp)
 804939c:	c7 45 ec 0a 00 00 00 	movl   $0xa,-0x14(%ebp)
 80493a3:	e9 a1 00 00 00       	jmp    8049449 <vprintfmt+0x382>
 80493a8:	8b 45 0c             	mov    0xc(%ebp),%eax
 80493ab:	89 44 24 04          	mov    %eax,0x4(%esp)
 80493af:	c7 04 24 58 00 00 00 	movl   $0x58,(%esp)
 80493b6:	8b 45 08             	mov    0x8(%ebp),%eax
 80493b9:	ff d0                	call   *%eax
 80493bb:	8b 45 0c             	mov    0xc(%ebp),%eax
 80493be:	89 44 24 04          	mov    %eax,0x4(%esp)
 80493c2:	c7 04 24 58 00 00 00 	movl   $0x58,(%esp)
 80493c9:	8b 45 08             	mov    0x8(%ebp),%eax
 80493cc:	ff d0                	call   *%eax
 80493ce:	8b 45 0c             	mov    0xc(%ebp),%eax
 80493d1:	89 44 24 04          	mov    %eax,0x4(%esp)
 80493d5:	c7 04 24 58 00 00 00 	movl   $0x58,(%esp)
 80493dc:	8b 45 08             	mov    0x8(%ebp),%eax
 80493df:	ff d0                	call   *%eax
 80493e1:	e9 d7 00 00 00       	jmp    80494bd <vprintfmt+0x3f6>
 80493e6:	8b 45 0c             	mov    0xc(%ebp),%eax
 80493e9:	89 44 24 04          	mov    %eax,0x4(%esp)
 80493ed:	c7 04 24 30 00 00 00 	movl   $0x30,(%esp)
 80493f4:	8b 45 08             	mov    0x8(%ebp),%eax
 80493f7:	ff d0                	call   *%eax
 80493f9:	8b 45 0c             	mov    0xc(%ebp),%eax
 80493fc:	89 44 24 04          	mov    %eax,0x4(%esp)
 8049400:	c7 04 24 78 00 00 00 	movl   $0x78,(%esp)
 8049407:	8b 45 08             	mov    0x8(%ebp),%eax
 804940a:	ff d0                	call   *%eax
 804940c:	8b 45 14             	mov    0x14(%ebp),%eax
 804940f:	8d 50 04             	lea    0x4(%eax),%edx
 8049412:	89 55 14             	mov    %edx,0x14(%ebp)
 8049415:	8b 00                	mov    (%eax),%eax
 8049417:	89 45 f0             	mov    %eax,-0x10(%ebp)
 804941a:	c7 45 f4 00 00 00 00 	movl   $0x0,-0xc(%ebp)
 8049421:	c7 45 ec 10 00 00 00 	movl   $0x10,-0x14(%ebp)
 8049428:	eb 1f                	jmp    8049449 <vprintfmt+0x382>
 804942a:	8b 45 e8             	mov    -0x18(%ebp),%eax
 804942d:	89 44 24 04          	mov    %eax,0x4(%esp)
 8049431:	8d 45 14             	lea    0x14(%ebp),%eax
 8049434:	89 04 24             	mov    %eax,(%esp)
 8049437:	e8 f5 fb ff ff       	call   8049031 <getuint>
 804943c:	89 45 f0             	mov    %eax,-0x10(%ebp)
 804943f:	89 55 f4             	mov    %edx,-0xc(%ebp)
 8049442:	c7 45 ec 10 00 00 00 	movl   $0x10,-0x14(%ebp)
 8049449:	0f be 55 db          	movsbl -0x25(%ebp),%edx
 804944d:	8b 45 ec             	mov    -0x14(%ebp),%eax
 8049450:	89 54 24 18          	mov    %edx,0x18(%esp)
 8049454:	8b 55 e4             	mov    -0x1c(%ebp),%edx
 8049457:	89 54 24 14          	mov    %edx,0x14(%esp)
 804945b:	89 44 24 10          	mov    %eax,0x10(%esp)
 804945f:	8b 45 f0             	mov    -0x10(%ebp),%eax
 8049462:	8b 55 f4             	mov    -0xc(%ebp),%edx
 8049465:	89 44 24 08          	mov    %eax,0x8(%esp)
 8049469:	89 54 24 0c          	mov    %edx,0xc(%esp)
 804946d:	8b 45 0c             	mov    0xc(%ebp),%eax
 8049470:	89 44 24 04          	mov    %eax,0x4(%esp)
 8049474:	8b 45 08             	mov    0x8(%ebp),%eax
 8049477:	89 04 24             	mov    %eax,(%esp)
 804947a:	e8 d4 fa ff ff       	call   8048f53 <printnum>
 804947f:	eb 3c                	jmp    80494bd <vprintfmt+0x3f6>
 8049481:	8b 45 0c             	mov    0xc(%ebp),%eax
 8049484:	89 44 24 04          	mov    %eax,0x4(%esp)
 8049488:	89 1c 24             	mov    %ebx,(%esp)
 804948b:	8b 45 08             	mov    0x8(%ebp),%eax
 804948e:	ff d0                	call   *%eax
 8049490:	eb 2b                	jmp    80494bd <vprintfmt+0x3f6>
 8049492:	8b 45 0c             	mov    0xc(%ebp),%eax
 8049495:	89 44 24 04          	mov    %eax,0x4(%esp)
 8049499:	c7 04 24 25 00 00 00 	movl   $0x25,(%esp)
 80494a0:	8b 45 08             	mov    0x8(%ebp),%eax
 80494a3:	ff d0                	call   *%eax
 80494a5:	83 6d 10 01          	subl   $0x1,0x10(%ebp)
 80494a9:	eb 04                	jmp    80494af <vprintfmt+0x3e8>
 80494ab:	83 6d 10 01          	subl   $0x1,0x10(%ebp)
 80494af:	8b 45 10             	mov    0x10(%ebp),%eax
 80494b2:	83 e8 01             	sub    $0x1,%eax
 80494b5:	0f b6 00             	movzbl (%eax),%eax
 80494b8:	3c 25                	cmp    $0x25,%al
 80494ba:	75 ef                	jne    80494ab <vprintfmt+0x3e4>
 80494bc:	90                   	nop
 80494bd:	90                   	nop
 80494be:	e9 26 fc ff ff       	jmp    80490e9 <vprintfmt+0x22>
 80494c3:	83 c4 40             	add    $0x40,%esp
 80494c6:	5b                   	pop    %ebx
 80494c7:	5e                   	pop    %esi
 80494c8:	5d                   	pop    %ebp
 80494c9:	c3                   	ret    

080494ca <printfmt>:
 80494ca:	55                   	push   %ebp
 80494cb:	89 e5                	mov    %esp,%ebp
 80494cd:	83 ec 28             	sub    $0x28,%esp
 80494d0:	8d 45 14             	lea    0x14(%ebp),%eax
 80494d3:	89 45 f4             	mov    %eax,-0xc(%ebp)
 80494d6:	8b 45 f4             	mov    -0xc(%ebp),%eax
 80494d9:	89 44 24 0c          	mov    %eax,0xc(%esp)
 80494dd:	8b 45 10             	mov    0x10(%ebp),%eax
 80494e0:	89 44 24 08          	mov    %eax,0x8(%esp)
 80494e4:	8b 45 0c             	mov    0xc(%ebp),%eax
 80494e7:	89 44 24 04          	mov    %eax,0x4(%esp)
 80494eb:	8b 45 08             	mov    0x8(%ebp),%eax
 80494ee:	89 04 24             	mov    %eax,(%esp)
 80494f1:	e8 d1 fb ff ff       	call   80490c7 <vprintfmt>
 80494f6:	c9                   	leave  
 80494f7:	c3                   	ret    

080494f8 <sprintputch>:
 80494f8:	55                   	push   %ebp
 80494f9:	89 e5                	mov    %esp,%ebp
 80494fb:	8b 45 0c             	mov    0xc(%ebp),%eax
 80494fe:	8b 40 08             	mov    0x8(%eax),%eax
 8049501:	8d 50 01             	lea    0x1(%eax),%edx
 8049504:	8b 45 0c             	mov    0xc(%ebp),%eax
 8049507:	89 50 08             	mov    %edx,0x8(%eax)
 804950a:	8b 45 0c             	mov    0xc(%ebp),%eax
 804950d:	8b 10                	mov    (%eax),%edx
 804950f:	8b 45 0c             	mov    0xc(%ebp),%eax
 8049512:	8b 40 04             	mov    0x4(%eax),%eax
 8049515:	39 c2                	cmp    %eax,%edx
 8049517:	73 12                	jae    804952b <sprintputch+0x33>
 8049519:	8b 45 0c             	mov    0xc(%ebp),%eax
 804951c:	8b 00                	mov    (%eax),%eax
 804951e:	8d 48 01             	lea    0x1(%eax),%ecx
 8049521:	8b 55 0c             	mov    0xc(%ebp),%edx
 8049524:	89 0a                	mov    %ecx,(%edx)
 8049526:	8b 55 08             	mov    0x8(%ebp),%edx
 8049529:	88 10                	mov    %dl,(%eax)
 804952b:	5d                   	pop    %ebp
 804952c:	c3                   	ret    

0804952d <vsnprintf>:
 804952d:	55                   	push   %ebp
 804952e:	89 e5                	mov    %esp,%ebp
 8049530:	83 ec 28             	sub    $0x28,%esp
 8049533:	8b 45 08             	mov    0x8(%ebp),%eax
 8049536:	89 45 ec             	mov    %eax,-0x14(%ebp)
 8049539:	8b 45 0c             	mov    0xc(%ebp),%eax
 804953c:	8d 50 ff             	lea    -0x1(%eax),%edx
 804953f:	8b 45 08             	mov    0x8(%ebp),%eax
 8049542:	01 d0                	add    %edx,%eax
 8049544:	89 45 f0             	mov    %eax,-0x10(%ebp)
 8049547:	c7 45 f4 00 00 00 00 	movl   $0x0,-0xc(%ebp)
 804954e:	83 7d 08 00          	cmpl   $0x0,0x8(%ebp)
 8049552:	74 06                	je     804955a <vsnprintf+0x2d>
 8049554:	83 7d 0c 00          	cmpl   $0x0,0xc(%ebp)
 8049558:	7f 07                	jg     8049561 <vsnprintf+0x34>
 804955a:	b8 fd ff ff ff       	mov    $0xfffffffd,%eax
 804955f:	eb 2a                	jmp    804958b <vsnprintf+0x5e>
 8049561:	8b 45 14             	mov    0x14(%ebp),%eax
 8049564:	89 44 24 0c          	mov    %eax,0xc(%esp)
 8049568:	8b 45 10             	mov    0x10(%ebp),%eax
 804956b:	89 44 24 08          	mov    %eax,0x8(%esp)
 804956f:	8d 45 ec             	lea    -0x14(%ebp),%eax
 8049572:	89 44 24 04          	mov    %eax,0x4(%esp)
 8049576:	c7 04 24 f8 94 04 08 	movl   $0x80494f8,(%esp)
 804957d:	e8 45 fb ff ff       	call   80490c7 <vprintfmt>
 8049582:	8b 45 ec             	mov    -0x14(%ebp),%eax
 8049585:	c6 00 00             	movb   $0x0,(%eax)
 8049588:	8b 45 f4             	mov    -0xc(%ebp),%eax
 804958b:	c9                   	leave  
 804958c:	c3                   	ret    

0804958d <snprintf>:
 804958d:	55                   	push   %ebp
 804958e:	89 e5                	mov    %esp,%ebp
 8049590:	83 ec 28             	sub    $0x28,%esp
 8049593:	8d 45 14             	lea    0x14(%ebp),%eax
 8049596:	89 45 f0             	mov    %eax,-0x10(%ebp)
 8049599:	8b 45 f0             	mov    -0x10(%ebp),%eax
 804959c:	89 44 24 0c          	mov    %eax,0xc(%esp)
 80495a0:	8b 45 10             	mov    0x10(%ebp),%eax
 80495a3:	89 44 24 08          	mov    %eax,0x8(%esp)
 80495a7:	8b 45 0c             	mov    0xc(%ebp),%eax
 80495aa:	89 44 24 04          	mov    %eax,0x4(%esp)
 80495ae:	8b 45 08             	mov    0x8(%ebp),%eax
 80495b1:	89 04 24             	mov    %eax,(%esp)
 80495b4:	e8 74 ff ff ff       	call   804952d <vsnprintf>
 80495b9:	89 45 f4             	mov    %eax,-0xc(%ebp)
 80495bc:	8b 45 f4             	mov    -0xc(%ebp),%eax
 80495bf:	c9                   	leave  
 80495c0:	c3                   	ret    

080495c1 <out_byte>:
 80495c1:	55                   	push   %ebp
 80495c2:	89 e5                	mov    %esp,%ebp
 80495c4:	83 ec 08             	sub    $0x8,%esp
 80495c7:	8b 55 08             	mov    0x8(%ebp),%edx
 80495ca:	8b 45 0c             	mov    0xc(%ebp),%eax
 80495cd:	66 89 55 fc          	mov    %dx,-0x4(%ebp)
 80495d1:	88 45 f8             	mov    %al,-0x8(%ebp)
 80495d4:	0f b7 55 fc          	movzwl -0x4(%ebp),%edx
 80495d8:	0f b6 45 f8          	movzbl -0x8(%ebp),%eax
 80495dc:	ee                   	out    %al,(%dx)
 80495dd:	c9                   	leave  
 80495de:	c3                   	ret    

080495df <init_serial>:
 80495df:	55                   	push   %ebp
 80495e0:	89 e5                	mov    %esp,%ebp
 80495e2:	83 ec 40             	sub    $0x40,%esp
 80495e5:	c7 45 fc f9 03 00 00 	movl   $0x3f9,-0x4(%ebp)
 80495ec:	c6 45 fb 00          	movb   $0x0,-0x5(%ebp)
 80495f0:	0f b6 45 fb          	movzbl -0x5(%ebp),%eax
 80495f4:	8b 55 fc             	mov    -0x4(%ebp),%edx
 80495f7:	ee                   	out    %al,(%dx)
 80495f8:	c7 45 f4 fb 03 00 00 	movl   $0x3fb,-0xc(%ebp)
 80495ff:	c6 45 f3 80          	movb   $0x80,-0xd(%ebp)
 8049603:	0f b6 45 f3          	movzbl -0xd(%ebp),%eax
 8049607:	8b 55 f4             	mov    -0xc(%ebp),%edx
 804960a:	ee                   	out    %al,(%dx)
 804960b:	c7 45 ec f8 03 00 00 	movl   $0x3f8,-0x14(%ebp)
 8049612:	c6 45 eb 01          	movb   $0x1,-0x15(%ebp)
 8049616:	0f b6 45 eb          	movzbl -0x15(%ebp),%eax
 804961a:	8b 55 ec             	mov    -0x14(%ebp),%edx
 804961d:	ee                   	out    %al,(%dx)
 804961e:	c7 45 e4 f9 03 00 00 	movl   $0x3f9,-0x1c(%ebp)
 8049625:	c6 45 e3 00          	movb   $0x0,-0x1d(%ebp)
 8049629:	0f b6 45 e3          	movzbl -0x1d(%ebp),%eax
 804962d:	8b 55 e4             	mov    -0x1c(%ebp),%edx
 8049630:	ee                   	out    %al,(%dx)
 8049631:	c7 45 dc fb 03 00 00 	movl   $0x3fb,-0x24(%ebp)
 8049638:	c6 45 db 03          	movb   $0x3,-0x25(%ebp)
 804963c:	0f b6 45 db          	movzbl -0x25(%ebp),%eax
 8049640:	8b 55 dc             	mov    -0x24(%ebp),%edx
 8049643:	ee                   	out    %al,(%dx)
 8049644:	c7 45 d4 fa 03 00 00 	movl   $0x3fa,-0x2c(%ebp)
 804964b:	c6 45 d3 c7          	movb   $0xc7,-0x2d(%ebp)
 804964f:	0f b6 45 d3          	movzbl -0x2d(%ebp),%eax
 8049653:	8b 55 d4             	mov    -0x2c(%ebp),%edx
 8049656:	ee                   	out    %al,(%dx)
 8049657:	c7 45 cc fc 03 00 00 	movl   $0x3fc,-0x34(%ebp)
 804965e:	c6 45 cb 0b          	movb   $0xb,-0x35(%ebp)
 8049662:	0f b6 45 cb          	movzbl -0x35(%ebp),%eax
 8049666:	8b 55 cc             	mov    -0x34(%ebp),%edx
 8049669:	ee                   	out    %al,(%dx)
 804966a:	c9                   	leave  
 804966b:	c3                   	ret    

0804966c <serial_idle>:
 804966c:	55                   	push   %ebp
 804966d:	89 e5                	mov    %esp,%ebp
 804966f:	83 ec 10             	sub    $0x10,%esp
 8049672:	c7 45 fc fd 03 00 00 	movl   $0x3fd,-0x4(%ebp)
 8049679:	8b 45 fc             	mov    -0x4(%ebp),%eax
 804967c:	89 c2                	mov    %eax,%edx
 804967e:	ec                   	in     (%dx),%al
 804967f:	88 45 fb             	mov    %al,-0x5(%ebp)
 8049682:	0f b6 45 fb          	movzbl -0x5(%ebp),%eax
 8049686:	0f b6 c0             	movzbl %al,%eax
 8049689:	83 e0 20             	and    $0x20,%eax
 804968c:	85 c0                	test   %eax,%eax
 804968e:	0f 95 c0             	setne  %al
 8049691:	0f b6 c0             	movzbl %al,%eax
 8049694:	c9                   	leave  
 8049695:	c3                   	ret    

08049696 <serial_printc>:
 8049696:	55                   	push   %ebp
 8049697:	89 e5                	mov    %esp,%ebp
 8049699:	83 ec 0c             	sub    $0xc,%esp
 804969c:	8b 45 08             	mov    0x8(%ebp),%eax
 804969f:	88 45 fc             	mov    %al,-0x4(%ebp)
 80496a2:	90                   	nop
 80496a3:	e8 c4 ff ff ff       	call   804966c <serial_idle>
 80496a8:	83 f8 01             	cmp    $0x1,%eax
 80496ab:	75 f6                	jne    80496a3 <serial_printc+0xd>
 80496ad:	0f be 45 fc          	movsbl -0x4(%ebp),%eax
 80496b1:	89 44 24 04          	mov    %eax,0x4(%esp)
 80496b5:	c7 04 24 f8 03 00 00 	movl   $0x3f8,(%esp)
 80496bc:	e8 00 ff ff ff       	call   80495c1 <out_byte>
 80496c1:	c9                   	leave  
 80496c2:	c3                   	ret    

080496c3 <strlen>:
 80496c3:	55                   	push   %ebp
 80496c4:	89 e5                	mov    %esp,%ebp
 80496c6:	83 ec 10             	sub    $0x10,%esp
 80496c9:	c7 45 fc 00 00 00 00 	movl   $0x0,-0x4(%ebp)
 80496d0:	eb 08                	jmp    80496da <strlen+0x17>
 80496d2:	83 45 fc 01          	addl   $0x1,-0x4(%ebp)
 80496d6:	83 45 08 01          	addl   $0x1,0x8(%ebp)
 80496da:	8b 45 08             	mov    0x8(%ebp),%eax
 80496dd:	0f b6 00             	movzbl (%eax),%eax
 80496e0:	84 c0                	test   %al,%al
 80496e2:	75 ee                	jne    80496d2 <strlen+0xf>
 80496e4:	8b 45 fc             	mov    -0x4(%ebp),%eax
 80496e7:	c9                   	leave  
 80496e8:	c3                   	ret    

080496e9 <strnlen>:
 80496e9:	55                   	push   %ebp
 80496ea:	89 e5                	mov    %esp,%ebp
 80496ec:	83 ec 10             	sub    $0x10,%esp
 80496ef:	c7 45 fc 00 00 00 00 	movl   $0x0,-0x4(%ebp)
 80496f6:	eb 0c                	jmp    8049704 <strnlen+0x1b>
 80496f8:	83 45 fc 01          	addl   $0x1,-0x4(%ebp)
 80496fc:	83 45 08 01          	addl   $0x1,0x8(%ebp)
 8049700:	83 6d 0c 01          	subl   $0x1,0xc(%ebp)
 8049704:	83 7d 0c 00          	cmpl   $0x0,0xc(%ebp)
 8049708:	74 0a                	je     8049714 <strnlen+0x2b>
 804970a:	8b 45 08             	mov    0x8(%ebp),%eax
 804970d:	0f b6 00             	movzbl (%eax),%eax
 8049710:	84 c0                	test   %al,%al
 8049712:	75 e4                	jne    80496f8 <strnlen+0xf>
 8049714:	8b 45 fc             	mov    -0x4(%ebp),%eax
 8049717:	c9                   	leave  
 8049718:	c3                   	ret    

08049719 <strcpy>:
 8049719:	55                   	push   %ebp
 804971a:	89 e5                	mov    %esp,%ebp
 804971c:	83 ec 10             	sub    $0x10,%esp
 804971f:	8b 45 08             	mov    0x8(%ebp),%eax
 8049722:	89 45 fc             	mov    %eax,-0x4(%ebp)
 8049725:	90                   	nop
 8049726:	8b 45 08             	mov    0x8(%ebp),%eax
 8049729:	8d 50 01             	lea    0x1(%eax),%edx
 804972c:	89 55 08             	mov    %edx,0x8(%ebp)
 804972f:	8b 55 0c             	mov    0xc(%ebp),%edx
 8049732:	8d 4a 01             	lea    0x1(%edx),%ecx
 8049735:	89 4d 0c             	mov    %ecx,0xc(%ebp)
 8049738:	0f b6 12             	movzbl (%edx),%edx
 804973b:	88 10                	mov    %dl,(%eax)
 804973d:	0f b6 00             	movzbl (%eax),%eax
 8049740:	84 c0                	test   %al,%al
 8049742:	75 e2                	jne    8049726 <strcpy+0xd>
 8049744:	8b 45 fc             	mov    -0x4(%ebp),%eax
 8049747:	c9                   	leave  
 8049748:	c3                   	ret    

08049749 <strcat>:
 8049749:	55                   	push   %ebp
 804974a:	89 e5                	mov    %esp,%ebp
 804974c:	83 ec 18             	sub    $0x18,%esp
 804974f:	8b 45 08             	mov    0x8(%ebp),%eax
 8049752:	89 04 24             	mov    %eax,(%esp)
 8049755:	e8 69 ff ff ff       	call   80496c3 <strlen>
 804975a:	89 45 fc             	mov    %eax,-0x4(%ebp)
 804975d:	8b 55 fc             	mov    -0x4(%ebp),%edx
 8049760:	8b 45 08             	mov    0x8(%ebp),%eax
 8049763:	01 c2                	add    %eax,%edx
 8049765:	8b 45 0c             	mov    0xc(%ebp),%eax
 8049768:	89 44 24 04          	mov    %eax,0x4(%esp)
 804976c:	89 14 24             	mov    %edx,(%esp)
 804976f:	e8 a5 ff ff ff       	call   8049719 <strcpy>
 8049774:	8b 45 08             	mov    0x8(%ebp),%eax
 8049777:	c9                   	leave  
 8049778:	c3                   	ret    

08049779 <strncpy>:
 8049779:	55                   	push   %ebp
 804977a:	89 e5                	mov    %esp,%ebp
 804977c:	83 ec 10             	sub    $0x10,%esp
 804977f:	8b 45 08             	mov    0x8(%ebp),%eax
 8049782:	89 45 f8             	mov    %eax,-0x8(%ebp)
 8049785:	c7 45 fc 00 00 00 00 	movl   $0x0,-0x4(%ebp)
 804978c:	eb 23                	jmp    80497b1 <strncpy+0x38>
 804978e:	8b 45 08             	mov    0x8(%ebp),%eax
 8049791:	8d 50 01             	lea    0x1(%eax),%edx
 8049794:	89 55 08             	mov    %edx,0x8(%ebp)
 8049797:	8b 55 0c             	mov    0xc(%ebp),%edx
 804979a:	0f b6 12             	movzbl (%edx),%edx
 804979d:	88 10                	mov    %dl,(%eax)
 804979f:	8b 45 0c             	mov    0xc(%ebp),%eax
 80497a2:	0f b6 00             	movzbl (%eax),%eax
 80497a5:	84 c0                	test   %al,%al
 80497a7:	74 04                	je     80497ad <strncpy+0x34>
 80497a9:	83 45 0c 01          	addl   $0x1,0xc(%ebp)
 80497ad:	83 45 fc 01          	addl   $0x1,-0x4(%ebp)
 80497b1:	8b 45 fc             	mov    -0x4(%ebp),%eax
 80497b4:	3b 45 10             	cmp    0x10(%ebp),%eax
 80497b7:	72 d5                	jb     804978e <strncpy+0x15>
 80497b9:	8b 45 f8             	mov    -0x8(%ebp),%eax
 80497bc:	c9                   	leave  
 80497bd:	c3                   	ret    

080497be <strlcpy>:
 80497be:	55                   	push   %ebp
 80497bf:	89 e5                	mov    %esp,%ebp
 80497c1:	83 ec 10             	sub    $0x10,%esp
 80497c4:	8b 45 08             	mov    0x8(%ebp),%eax
 80497c7:	89 45 fc             	mov    %eax,-0x4(%ebp)
 80497ca:	83 7d 10 00          	cmpl   $0x0,0x10(%ebp)
 80497ce:	74 33                	je     8049803 <strlcpy+0x45>
 80497d0:	eb 17                	jmp    80497e9 <strlcpy+0x2b>
 80497d2:	8b 45 08             	mov    0x8(%ebp),%eax
 80497d5:	8d 50 01             	lea    0x1(%eax),%edx
 80497d8:	89 55 08             	mov    %edx,0x8(%ebp)
 80497db:	8b 55 0c             	mov    0xc(%ebp),%edx
 80497de:	8d 4a 01             	lea    0x1(%edx),%ecx
 80497e1:	89 4d 0c             	mov    %ecx,0xc(%ebp)
 80497e4:	0f b6 12             	movzbl (%edx),%edx
 80497e7:	88 10                	mov    %dl,(%eax)
 80497e9:	83 6d 10 01          	subl   $0x1,0x10(%ebp)
 80497ed:	83 7d 10 00          	cmpl   $0x0,0x10(%ebp)
 80497f1:	74 0a                	je     80497fd <strlcpy+0x3f>
 80497f3:	8b 45 0c             	mov    0xc(%ebp),%eax
 80497f6:	0f b6 00             	movzbl (%eax),%eax
 80497f9:	84 c0                	test   %al,%al
 80497fb:	75 d5                	jne    80497d2 <strlcpy+0x14>
 80497fd:	8b 45 08             	mov    0x8(%ebp),%eax
 8049800:	c6 00 00             	movb   $0x0,(%eax)
 8049803:	8b 55 08             	mov    0x8(%ebp),%edx
 8049806:	8b 45 fc             	mov    -0x4(%ebp),%eax
 8049809:	29 c2                	sub    %eax,%edx
 804980b:	89 d0                	mov    %edx,%eax
 804980d:	c9                   	leave  
 804980e:	c3                   	ret    

0804980f <strcmp>:
 804980f:	55                   	push   %ebp
 8049810:	89 e5                	mov    %esp,%ebp
 8049812:	eb 08                	jmp    804981c <strcmp+0xd>
 8049814:	83 45 08 01          	addl   $0x1,0x8(%ebp)
 8049818:	83 45 0c 01          	addl   $0x1,0xc(%ebp)
 804981c:	8b 45 08             	mov    0x8(%ebp),%eax
 804981f:	0f b6 00             	movzbl (%eax),%eax
 8049822:	84 c0                	test   %al,%al
 8049824:	74 10                	je     8049836 <strcmp+0x27>
 8049826:	8b 45 08             	mov    0x8(%ebp),%eax
 8049829:	0f b6 10             	movzbl (%eax),%edx
 804982c:	8b 45 0c             	mov    0xc(%ebp),%eax
 804982f:	0f b6 00             	movzbl (%eax),%eax
 8049832:	38 c2                	cmp    %al,%dl
 8049834:	74 de                	je     8049814 <strcmp+0x5>
 8049836:	8b 45 08             	mov    0x8(%ebp),%eax
 8049839:	0f b6 00             	movzbl (%eax),%eax
 804983c:	0f b6 d0             	movzbl %al,%edx
 804983f:	8b 45 0c             	mov    0xc(%ebp),%eax
 8049842:	0f b6 00             	movzbl (%eax),%eax
 8049845:	0f b6 c0             	movzbl %al,%eax
 8049848:	29 c2                	sub    %eax,%edx
 804984a:	89 d0                	mov    %edx,%eax
 804984c:	5d                   	pop    %ebp
 804984d:	c3                   	ret    

0804984e <strncmp>:
 804984e:	55                   	push   %ebp
 804984f:	89 e5                	mov    %esp,%ebp
 8049851:	eb 0c                	jmp    804985f <strncmp+0x11>
 8049853:	83 6d 10 01          	subl   $0x1,0x10(%ebp)
 8049857:	83 45 08 01          	addl   $0x1,0x8(%ebp)
 804985b:	83 45 0c 01          	addl   $0x1,0xc(%ebp)
 804985f:	83 7d 10 00          	cmpl   $0x0,0x10(%ebp)
 8049863:	74 1a                	je     804987f <strncmp+0x31>
 8049865:	8b 45 08             	mov    0x8(%ebp),%eax
 8049868:	0f b6 00             	movzbl (%eax),%eax
 804986b:	84 c0                	test   %al,%al
 804986d:	74 10                	je     804987f <strncmp+0x31>
 804986f:	8b 45 08             	mov    0x8(%ebp),%eax
 8049872:	0f b6 10             	movzbl (%eax),%edx
 8049875:	8b 45 0c             	mov    0xc(%ebp),%eax
 8049878:	0f b6 00             	movzbl (%eax),%eax
 804987b:	38 c2                	cmp    %al,%dl
 804987d:	74 d4                	je     8049853 <strncmp+0x5>
 804987f:	83 7d 10 00          	cmpl   $0x0,0x10(%ebp)
 8049883:	75 07                	jne    804988c <strncmp+0x3e>
 8049885:	b8 00 00 00 00       	mov    $0x0,%eax
 804988a:	eb 16                	jmp    80498a2 <strncmp+0x54>
 804988c:	8b 45 08             	mov    0x8(%ebp),%eax
 804988f:	0f b6 00             	movzbl (%eax),%eax
 8049892:	0f b6 d0             	movzbl %al,%edx
 8049895:	8b 45 0c             	mov    0xc(%ebp),%eax
 8049898:	0f b6 00             	movzbl (%eax),%eax
 804989b:	0f b6 c0             	movzbl %al,%eax
 804989e:	29 c2                	sub    %eax,%edx
 80498a0:	89 d0                	mov    %edx,%eax
 80498a2:	5d                   	pop    %ebp
 80498a3:	c3                   	ret    

080498a4 <strchr>:
 80498a4:	55                   	push   %ebp
 80498a5:	89 e5                	mov    %esp,%ebp
 80498a7:	83 ec 04             	sub    $0x4,%esp
 80498aa:	8b 45 0c             	mov    0xc(%ebp),%eax
 80498ad:	88 45 fc             	mov    %al,-0x4(%ebp)
 80498b0:	eb 14                	jmp    80498c6 <strchr+0x22>
 80498b2:	8b 45 08             	mov    0x8(%ebp),%eax
 80498b5:	0f b6 00             	movzbl (%eax),%eax
 80498b8:	3a 45 fc             	cmp    -0x4(%ebp),%al
 80498bb:	75 05                	jne    80498c2 <strchr+0x1e>
 80498bd:	8b 45 08             	mov    0x8(%ebp),%eax
 80498c0:	eb 13                	jmp    80498d5 <strchr+0x31>
 80498c2:	83 45 08 01          	addl   $0x1,0x8(%ebp)
 80498c6:	8b 45 08             	mov    0x8(%ebp),%eax
 80498c9:	0f b6 00             	movzbl (%eax),%eax
 80498cc:	84 c0                	test   %al,%al
 80498ce:	75 e2                	jne    80498b2 <strchr+0xe>
 80498d0:	b8 00 00 00 00       	mov    $0x0,%eax
 80498d5:	c9                   	leave  
 80498d6:	c3                   	ret    

080498d7 <strfind>:
 80498d7:	55                   	push   %ebp
 80498d8:	89 e5                	mov    %esp,%ebp
 80498da:	83 ec 04             	sub    $0x4,%esp
 80498dd:	8b 45 0c             	mov    0xc(%ebp),%eax
 80498e0:	88 45 fc             	mov    %al,-0x4(%ebp)
 80498e3:	eb 11                	jmp    80498f6 <strfind+0x1f>
 80498e5:	8b 45 08             	mov    0x8(%ebp),%eax
 80498e8:	0f b6 00             	movzbl (%eax),%eax
 80498eb:	3a 45 fc             	cmp    -0x4(%ebp),%al
 80498ee:	75 02                	jne    80498f2 <strfind+0x1b>
 80498f0:	eb 0e                	jmp    8049900 <strfind+0x29>
 80498f2:	83 45 08 01          	addl   $0x1,0x8(%ebp)
 80498f6:	8b 45 08             	mov    0x8(%ebp),%eax
 80498f9:	0f b6 00             	movzbl (%eax),%eax
 80498fc:	84 c0                	test   %al,%al
 80498fe:	75 e5                	jne    80498e5 <strfind+0xe>
 8049900:	8b 45 08             	mov    0x8(%ebp),%eax
 8049903:	c9                   	leave  
 8049904:	c3                   	ret    

08049905 <memset>:
 8049905:	55                   	push   %ebp
 8049906:	89 e5                	mov    %esp,%ebp
 8049908:	57                   	push   %edi
 8049909:	83 7d 10 00          	cmpl   $0x0,0x10(%ebp)
 804990d:	75 05                	jne    8049914 <memset+0xf>
 804990f:	8b 45 08             	mov    0x8(%ebp),%eax
 8049912:	eb 5c                	jmp    8049970 <memset+0x6b>
 8049914:	8b 45 08             	mov    0x8(%ebp),%eax
 8049917:	83 e0 03             	and    $0x3,%eax
 804991a:	85 c0                	test   %eax,%eax
 804991c:	75 41                	jne    804995f <memset+0x5a>
 804991e:	8b 45 10             	mov    0x10(%ebp),%eax
 8049921:	83 e0 03             	and    $0x3,%eax
 8049924:	85 c0                	test   %eax,%eax
 8049926:	75 37                	jne    804995f <memset+0x5a>
 8049928:	81 65 0c ff 00 00 00 	andl   $0xff,0xc(%ebp)
 804992f:	8b 45 0c             	mov    0xc(%ebp),%eax
 8049932:	c1 e0 18             	shl    $0x18,%eax
 8049935:	89 c2                	mov    %eax,%edx
 8049937:	8b 45 0c             	mov    0xc(%ebp),%eax
 804993a:	c1 e0 10             	shl    $0x10,%eax
 804993d:	09 c2                	or     %eax,%edx
 804993f:	8b 45 0c             	mov    0xc(%ebp),%eax
 8049942:	c1 e0 08             	shl    $0x8,%eax
 8049945:	09 d0                	or     %edx,%eax
 8049947:	09 45 0c             	or     %eax,0xc(%ebp)
 804994a:	8b 45 10             	mov    0x10(%ebp),%eax
 804994d:	c1 e8 02             	shr    $0x2,%eax
 8049950:	89 c1                	mov    %eax,%ecx
 8049952:	8b 55 08             	mov    0x8(%ebp),%edx
 8049955:	8b 45 0c             	mov    0xc(%ebp),%eax
 8049958:	89 d7                	mov    %edx,%edi
 804995a:	fc                   	cld    
 804995b:	f3 ab                	rep stos %eax,%es:(%edi)
 804995d:	eb 0e                	jmp    804996d <memset+0x68>
 804995f:	8b 55 08             	mov    0x8(%ebp),%edx
 8049962:	8b 45 0c             	mov    0xc(%ebp),%eax
 8049965:	8b 4d 10             	mov    0x10(%ebp),%ecx
 8049968:	89 d7                	mov    %edx,%edi
 804996a:	fc                   	cld    
 804996b:	f3 aa                	rep stos %al,%es:(%edi)
 804996d:	8b 45 08             	mov    0x8(%ebp),%eax
 8049970:	5f                   	pop    %edi
 8049971:	5d                   	pop    %ebp
 8049972:	c3                   	ret    

08049973 <memmove>:
 8049973:	55                   	push   %ebp
 8049974:	89 e5                	mov    %esp,%ebp
 8049976:	57                   	push   %edi
 8049977:	56                   	push   %esi
 8049978:	53                   	push   %ebx
 8049979:	83 ec 10             	sub    $0x10,%esp
 804997c:	8b 45 0c             	mov    0xc(%ebp),%eax
 804997f:	89 45 f0             	mov    %eax,-0x10(%ebp)
 8049982:	8b 45 08             	mov    0x8(%ebp),%eax
 8049985:	89 45 ec             	mov    %eax,-0x14(%ebp)
 8049988:	8b 45 f0             	mov    -0x10(%ebp),%eax
 804998b:	3b 45 ec             	cmp    -0x14(%ebp),%eax
 804998e:	73 6d                	jae    80499fd <memmove+0x8a>
 8049990:	8b 45 10             	mov    0x10(%ebp),%eax
 8049993:	8b 55 f0             	mov    -0x10(%ebp),%edx
 8049996:	01 d0                	add    %edx,%eax
 8049998:	3b 45 ec             	cmp    -0x14(%ebp),%eax
 804999b:	76 60                	jbe    80499fd <memmove+0x8a>
 804999d:	8b 45 10             	mov    0x10(%ebp),%eax
 80499a0:	01 45 f0             	add    %eax,-0x10(%ebp)
 80499a3:	8b 45 10             	mov    0x10(%ebp),%eax
 80499a6:	01 45 ec             	add    %eax,-0x14(%ebp)
 80499a9:	8b 45 f0             	mov    -0x10(%ebp),%eax
 80499ac:	83 e0 03             	and    $0x3,%eax
 80499af:	85 c0                	test   %eax,%eax
 80499b1:	75 2f                	jne    80499e2 <memmove+0x6f>
 80499b3:	8b 45 ec             	mov    -0x14(%ebp),%eax
 80499b6:	83 e0 03             	and    $0x3,%eax
 80499b9:	85 c0                	test   %eax,%eax
 80499bb:	75 25                	jne    80499e2 <memmove+0x6f>
 80499bd:	8b 45 10             	mov    0x10(%ebp),%eax
 80499c0:	83 e0 03             	and    $0x3,%eax
 80499c3:	85 c0                	test   %eax,%eax
 80499c5:	75 1b                	jne    80499e2 <memmove+0x6f>
 80499c7:	8b 45 ec             	mov    -0x14(%ebp),%eax
 80499ca:	83 e8 04             	sub    $0x4,%eax
 80499cd:	8b 55 f0             	mov    -0x10(%ebp),%edx
 80499d0:	83 ea 04             	sub    $0x4,%edx
 80499d3:	8b 4d 10             	mov    0x10(%ebp),%ecx
 80499d6:	c1 e9 02             	shr    $0x2,%ecx
 80499d9:	89 c7                	mov    %eax,%edi
 80499db:	89 d6                	mov    %edx,%esi
 80499dd:	fd                   	std    
 80499de:	f3 a5                	rep movsl %ds:(%esi),%es:(%edi)
 80499e0:	eb 18                	jmp    80499fa <memmove+0x87>
 80499e2:	8b 45 ec             	mov    -0x14(%ebp),%eax
 80499e5:	8d 50 ff             	lea    -0x1(%eax),%edx
 80499e8:	8b 45 f0             	mov    -0x10(%ebp),%eax
 80499eb:	8d 58 ff             	lea    -0x1(%eax),%ebx
 80499ee:	8b 45 10             	mov    0x10(%ebp),%eax
 80499f1:	89 d7                	mov    %edx,%edi
 80499f3:	89 de                	mov    %ebx,%esi
 80499f5:	89 c1                	mov    %eax,%ecx
 80499f7:	fd                   	std    
 80499f8:	f3 a4                	rep movsb %ds:(%esi),%es:(%edi)
 80499fa:	fc                   	cld    
 80499fb:	eb 45                	jmp    8049a42 <memmove+0xcf>
 80499fd:	8b 45 f0             	mov    -0x10(%ebp),%eax
 8049a00:	83 e0 03             	and    $0x3,%eax
 8049a03:	85 c0                	test   %eax,%eax
 8049a05:	75 2b                	jne    8049a32 <memmove+0xbf>
 8049a07:	8b 45 ec             	mov    -0x14(%ebp),%eax
 8049a0a:	83 e0 03             	and    $0x3,%eax
 8049a0d:	85 c0                	test   %eax,%eax
 8049a0f:	75 21                	jne    8049a32 <memmove+0xbf>
 8049a11:	8b 45 10             	mov    0x10(%ebp),%eax
 8049a14:	83 e0 03             	and    $0x3,%eax
 8049a17:	85 c0                	test   %eax,%eax
 8049a19:	75 17                	jne    8049a32 <memmove+0xbf>
 8049a1b:	8b 45 10             	mov    0x10(%ebp),%eax
 8049a1e:	c1 e8 02             	shr    $0x2,%eax
 8049a21:	89 c1                	mov    %eax,%ecx
 8049a23:	8b 45 ec             	mov    -0x14(%ebp),%eax
 8049a26:	8b 55 f0             	mov    -0x10(%ebp),%edx
 8049a29:	89 c7                	mov    %eax,%edi
 8049a2b:	89 d6                	mov    %edx,%esi
 8049a2d:	fc                   	cld    
 8049a2e:	f3 a5                	rep movsl %ds:(%esi),%es:(%edi)
 8049a30:	eb 10                	jmp    8049a42 <memmove+0xcf>
 8049a32:	8b 45 ec             	mov    -0x14(%ebp),%eax
 8049a35:	8b 55 f0             	mov    -0x10(%ebp),%edx
 8049a38:	8b 4d 10             	mov    0x10(%ebp),%ecx
 8049a3b:	89 c7                	mov    %eax,%edi
 8049a3d:	89 d6                	mov    %edx,%esi
 8049a3f:	fc                   	cld    
 8049a40:	f3 a4                	rep movsb %ds:(%esi),%es:(%edi)
 8049a42:	8b 45 08             	mov    0x8(%ebp),%eax
 8049a45:	83 c4 10             	add    $0x10,%esp
 8049a48:	5b                   	pop    %ebx
 8049a49:	5e                   	pop    %esi
 8049a4a:	5f                   	pop    %edi
 8049a4b:	5d                   	pop    %ebp
 8049a4c:	c3                   	ret    

08049a4d <memcpy>:
 8049a4d:	55                   	push   %ebp
 8049a4e:	89 e5                	mov    %esp,%ebp
 8049a50:	83 ec 0c             	sub    $0xc,%esp
 8049a53:	8b 45 10             	mov    0x10(%ebp),%eax
 8049a56:	89 44 24 08          	mov    %eax,0x8(%esp)
 8049a5a:	8b 45 0c             	mov    0xc(%ebp),%eax
 8049a5d:	89 44 24 04          	mov    %eax,0x4(%esp)
 8049a61:	8b 45 08             	mov    0x8(%ebp),%eax
 8049a64:	89 04 24             	mov    %eax,(%esp)
 8049a67:	e8 07 ff ff ff       	call   8049973 <memmove>
 8049a6c:	c9                   	leave  
 8049a6d:	c3                   	ret    

08049a6e <memcmp>:
 8049a6e:	55                   	push   %ebp
 8049a6f:	89 e5                	mov    %esp,%ebp
 8049a71:	83 ec 10             	sub    $0x10,%esp
 8049a74:	8b 45 08             	mov    0x8(%ebp),%eax
 8049a77:	89 45 fc             	mov    %eax,-0x4(%ebp)
 8049a7a:	8b 45 0c             	mov    0xc(%ebp),%eax
 8049a7d:	89 45 f8             	mov    %eax,-0x8(%ebp)
 8049a80:	eb 30                	jmp    8049ab2 <memcmp+0x44>
 8049a82:	8b 45 fc             	mov    -0x4(%ebp),%eax
 8049a85:	0f b6 10             	movzbl (%eax),%edx
 8049a88:	8b 45 f8             	mov    -0x8(%ebp),%eax
 8049a8b:	0f b6 00             	movzbl (%eax),%eax
 8049a8e:	38 c2                	cmp    %al,%dl
 8049a90:	74 18                	je     8049aaa <memcmp+0x3c>
 8049a92:	8b 45 fc             	mov    -0x4(%ebp),%eax
 8049a95:	0f b6 00             	movzbl (%eax),%eax
 8049a98:	0f b6 d0             	movzbl %al,%edx
 8049a9b:	8b 45 f8             	mov    -0x8(%ebp),%eax
 8049a9e:	0f b6 00             	movzbl (%eax),%eax
 8049aa1:	0f b6 c0             	movzbl %al,%eax
 8049aa4:	29 c2                	sub    %eax,%edx
 8049aa6:	89 d0                	mov    %edx,%eax
 8049aa8:	eb 1a                	jmp    8049ac4 <memcmp+0x56>
 8049aaa:	83 45 fc 01          	addl   $0x1,-0x4(%ebp)
 8049aae:	83 45 f8 01          	addl   $0x1,-0x8(%ebp)
 8049ab2:	8b 45 10             	mov    0x10(%ebp),%eax
 8049ab5:	8d 50 ff             	lea    -0x1(%eax),%edx
 8049ab8:	89 55 10             	mov    %edx,0x10(%ebp)
 8049abb:	85 c0                	test   %eax,%eax
 8049abd:	75 c3                	jne    8049a82 <memcmp+0x14>
 8049abf:	b8 00 00 00 00       	mov    $0x0,%eax
 8049ac4:	c9                   	leave  
 8049ac5:	c3                   	ret    

08049ac6 <memfind>:
 8049ac6:	55                   	push   %ebp
 8049ac7:	89 e5                	mov    %esp,%ebp
 8049ac9:	83 ec 10             	sub    $0x10,%esp
 8049acc:	8b 45 10             	mov    0x10(%ebp),%eax
 8049acf:	8b 55 08             	mov    0x8(%ebp),%edx
 8049ad2:	01 d0                	add    %edx,%eax
 8049ad4:	89 45 fc             	mov    %eax,-0x4(%ebp)
 8049ad7:	eb 13                	jmp    8049aec <memfind+0x26>
 8049ad9:	8b 45 08             	mov    0x8(%ebp),%eax
 8049adc:	0f b6 10             	movzbl (%eax),%edx
 8049adf:	8b 45 0c             	mov    0xc(%ebp),%eax
 8049ae2:	38 c2                	cmp    %al,%dl
 8049ae4:	75 02                	jne    8049ae8 <memfind+0x22>
 8049ae6:	eb 0c                	jmp    8049af4 <memfind+0x2e>
 8049ae8:	83 45 08 01          	addl   $0x1,0x8(%ebp)
 8049aec:	8b 45 08             	mov    0x8(%ebp),%eax
 8049aef:	3b 45 fc             	cmp    -0x4(%ebp),%eax
 8049af2:	72 e5                	jb     8049ad9 <memfind+0x13>
 8049af4:	8b 45 08             	mov    0x8(%ebp),%eax
 8049af7:	c9                   	leave  
 8049af8:	c3                   	ret    

08049af9 <strtol>:
 8049af9:	55                   	push   %ebp
 8049afa:	89 e5                	mov    %esp,%ebp
 8049afc:	83 ec 10             	sub    $0x10,%esp
 8049aff:	c7 45 fc 00 00 00 00 	movl   $0x0,-0x4(%ebp)
 8049b06:	c7 45 f8 00 00 00 00 	movl   $0x0,-0x8(%ebp)
 8049b0d:	eb 04                	jmp    8049b13 <strtol+0x1a>
 8049b0f:	83 45 08 01          	addl   $0x1,0x8(%ebp)
 8049b13:	8b 45 08             	mov    0x8(%ebp),%eax
 8049b16:	0f b6 00             	movzbl (%eax),%eax
 8049b19:	3c 20                	cmp    $0x20,%al
 8049b1b:	74 f2                	je     8049b0f <strtol+0x16>
 8049b1d:	8b 45 08             	mov    0x8(%ebp),%eax
 8049b20:	0f b6 00             	movzbl (%eax),%eax
 8049b23:	3c 09                	cmp    $0x9,%al
 8049b25:	74 e8                	je     8049b0f <strtol+0x16>
 8049b27:	8b 45 08             	mov    0x8(%ebp),%eax
 8049b2a:	0f b6 00             	movzbl (%eax),%eax
 8049b2d:	3c 2b                	cmp    $0x2b,%al
 8049b2f:	75 06                	jne    8049b37 <strtol+0x3e>
 8049b31:	83 45 08 01          	addl   $0x1,0x8(%ebp)
 8049b35:	eb 15                	jmp    8049b4c <strtol+0x53>
 8049b37:	8b 45 08             	mov    0x8(%ebp),%eax
 8049b3a:	0f b6 00             	movzbl (%eax),%eax
 8049b3d:	3c 2d                	cmp    $0x2d,%al
 8049b3f:	75 0b                	jne    8049b4c <strtol+0x53>
 8049b41:	83 45 08 01          	addl   $0x1,0x8(%ebp)
 8049b45:	c7 45 fc 01 00 00 00 	movl   $0x1,-0x4(%ebp)
 8049b4c:	83 7d 10 00          	cmpl   $0x0,0x10(%ebp)
 8049b50:	74 06                	je     8049b58 <strtol+0x5f>
 8049b52:	83 7d 10 10          	cmpl   $0x10,0x10(%ebp)
 8049b56:	75 24                	jne    8049b7c <strtol+0x83>
 8049b58:	8b 45 08             	mov    0x8(%ebp),%eax
 8049b5b:	0f b6 00             	movzbl (%eax),%eax
 8049b5e:	3c 30                	cmp    $0x30,%al
 8049b60:	75 1a                	jne    8049b7c <strtol+0x83>
 8049b62:	8b 45 08             	mov    0x8(%ebp),%eax
 8049b65:	83 c0 01             	add    $0x1,%eax
 8049b68:	0f b6 00             	movzbl (%eax),%eax
 8049b6b:	3c 78                	cmp    $0x78,%al
 8049b6d:	75 0d                	jne    8049b7c <strtol+0x83>
 8049b6f:	83 45 08 02          	addl   $0x2,0x8(%ebp)
 8049b73:	c7 45 10 10 00 00 00 	movl   $0x10,0x10(%ebp)
 8049b7a:	eb 2a                	jmp    8049ba6 <strtol+0xad>
 8049b7c:	83 7d 10 00          	cmpl   $0x0,0x10(%ebp)
 8049b80:	75 17                	jne    8049b99 <strtol+0xa0>
 8049b82:	8b 45 08             	mov    0x8(%ebp),%eax
 8049b85:	0f b6 00             	movzbl (%eax),%eax
 8049b88:	3c 30                	cmp    $0x30,%al
 8049b8a:	75 0d                	jne    8049b99 <strtol+0xa0>
 8049b8c:	83 45 08 01          	addl   $0x1,0x8(%ebp)
 8049b90:	c7 45 10 08 00 00 00 	movl   $0x8,0x10(%ebp)
 8049b97:	eb 0d                	jmp    8049ba6 <strtol+0xad>
 8049b99:	83 7d 10 00          	cmpl   $0x0,0x10(%ebp)
 8049b9d:	75 07                	jne    8049ba6 <strtol+0xad>
 8049b9f:	c7 45 10 0a 00 00 00 	movl   $0xa,0x10(%ebp)
 8049ba6:	8b 45 08             	mov    0x8(%ebp),%eax
 8049ba9:	0f b6 00             	movzbl (%eax),%eax
 8049bac:	3c 2f                	cmp    $0x2f,%al
 8049bae:	7e 1b                	jle    8049bcb <strtol+0xd2>
 8049bb0:	8b 45 08             	mov    0x8(%ebp),%eax
 8049bb3:	0f b6 00             	movzbl (%eax),%eax
 8049bb6:	3c 39                	cmp    $0x39,%al
 8049bb8:	7f 11                	jg     8049bcb <strtol+0xd2>
 8049bba:	8b 45 08             	mov    0x8(%ebp),%eax
 8049bbd:	0f b6 00             	movzbl (%eax),%eax
 8049bc0:	0f be c0             	movsbl %al,%eax
 8049bc3:	83 e8 30             	sub    $0x30,%eax
 8049bc6:	89 45 f4             	mov    %eax,-0xc(%ebp)
 8049bc9:	eb 48                	jmp    8049c13 <strtol+0x11a>
 8049bcb:	8b 45 08             	mov    0x8(%ebp),%eax
 8049bce:	0f b6 00             	movzbl (%eax),%eax
 8049bd1:	3c 60                	cmp    $0x60,%al
 8049bd3:	7e 1b                	jle    8049bf0 <strtol+0xf7>
 8049bd5:	8b 45 08             	mov    0x8(%ebp),%eax
 8049bd8:	0f b6 00             	movzbl (%eax),%eax
 8049bdb:	3c 7a                	cmp    $0x7a,%al
 8049bdd:	7f 11                	jg     8049bf0 <strtol+0xf7>
 8049bdf:	8b 45 08             	mov    0x8(%ebp),%eax
 8049be2:	0f b6 00             	movzbl (%eax),%eax
 8049be5:	0f be c0             	movsbl %al,%eax
 8049be8:	83 e8 57             	sub    $0x57,%eax
 8049beb:	89 45 f4             	mov    %eax,-0xc(%ebp)
 8049bee:	eb 23                	jmp    8049c13 <strtol+0x11a>
 8049bf0:	8b 45 08             	mov    0x8(%ebp),%eax
 8049bf3:	0f b6 00             	movzbl (%eax),%eax
 8049bf6:	3c 40                	cmp    $0x40,%al
 8049bf8:	7e 3d                	jle    8049c37 <strtol+0x13e>
 8049bfa:	8b 45 08             	mov    0x8(%ebp),%eax
 8049bfd:	0f b6 00             	movzbl (%eax),%eax
 8049c00:	3c 5a                	cmp    $0x5a,%al
 8049c02:	7f 33                	jg     8049c37 <strtol+0x13e>
 8049c04:	8b 45 08             	mov    0x8(%ebp),%eax
 8049c07:	0f b6 00             	movzbl (%eax),%eax
 8049c0a:	0f be c0             	movsbl %al,%eax
 8049c0d:	83 e8 37             	sub    $0x37,%eax
 8049c10:	89 45 f4             	mov    %eax,-0xc(%ebp)
 8049c13:	8b 45 f4             	mov    -0xc(%ebp),%eax
 8049c16:	3b 45 10             	cmp    0x10(%ebp),%eax
 8049c19:	7c 02                	jl     8049c1d <strtol+0x124>
 8049c1b:	eb 1a                	jmp    8049c37 <strtol+0x13e>
 8049c1d:	83 45 08 01          	addl   $0x1,0x8(%ebp)
 8049c21:	8b 45 f8             	mov    -0x8(%ebp),%eax
 8049c24:	0f af 45 10          	imul   0x10(%ebp),%eax
 8049c28:	89 c2                	mov    %eax,%edx
 8049c2a:	8b 45 f4             	mov    -0xc(%ebp),%eax
 8049c2d:	01 d0                	add    %edx,%eax
 8049c2f:	89 45 f8             	mov    %eax,-0x8(%ebp)
 8049c32:	e9 6f ff ff ff       	jmp    8049ba6 <strtol+0xad>
 8049c37:	83 7d 0c 00          	cmpl   $0x0,0xc(%ebp)
 8049c3b:	74 08                	je     8049c45 <strtol+0x14c>
 8049c3d:	8b 45 0c             	mov    0xc(%ebp),%eax
 8049c40:	8b 55 08             	mov    0x8(%ebp),%edx
 8049c43:	89 10                	mov    %edx,(%eax)
 8049c45:	83 7d fc 00          	cmpl   $0x0,-0x4(%ebp)
 8049c49:	74 07                	je     8049c52 <strtol+0x159>
 8049c4b:	8b 45 f8             	mov    -0x8(%ebp),%eax
 8049c4e:	f7 d8                	neg    %eax
 8049c50:	eb 03                	jmp    8049c55 <strtol+0x15c>
 8049c52:	8b 45 f8             	mov    -0x8(%ebp),%eax
 8049c55:	c9                   	leave  
 8049c56:	c3                   	ret    

08049c57 <out_byte>:
 8049c57:	55                   	push   %ebp
 8049c58:	89 e5                	mov    %esp,%ebp
 8049c5a:	83 ec 08             	sub    $0x8,%esp
 8049c5d:	8b 55 08             	mov    0x8(%ebp),%edx
 8049c60:	8b 45 0c             	mov    0xc(%ebp),%eax
 8049c63:	66 89 55 fc          	mov    %dx,-0x4(%ebp)
 8049c67:	88 45 f8             	mov    %al,-0x8(%ebp)
 8049c6a:	0f b7 55 fc          	movzwl -0x4(%ebp),%edx
 8049c6e:	0f b6 45 f8          	movzbl -0x8(%ebp),%eax
 8049c72:	ee                   	out    %al,(%dx)
 8049c73:	c9                   	leave  
 8049c74:	c3                   	ret    

08049c75 <init_timer>:
 8049c75:	55                   	push   %ebp
 8049c76:	89 e5                	mov    %esp,%ebp
 8049c78:	83 ec 18             	sub    $0x18,%esp
 8049c7b:	c7 45 fc 9b 2e 00 00 	movl   $0x2e9b,-0x4(%ebp)
 8049c82:	c7 44 24 04 34 00 00 	movl   $0x34,0x4(%esp)
 8049c89:	00 
 8049c8a:	c7 04 24 43 00 00 00 	movl   $0x43,(%esp)
 8049c91:	e8 c1 ff ff ff       	call   8049c57 <out_byte>
 8049c96:	8b 45 fc             	mov    -0x4(%ebp),%eax
 8049c99:	99                   	cltd   
 8049c9a:	c1 ea 18             	shr    $0x18,%edx
 8049c9d:	01 d0                	add    %edx,%eax
 8049c9f:	0f b6 c0             	movzbl %al,%eax
 8049ca2:	29 d0                	sub    %edx,%eax
 8049ca4:	0f be c0             	movsbl %al,%eax
 8049ca7:	89 44 24 04          	mov    %eax,0x4(%esp)
 8049cab:	c7 04 24 40 00 00 00 	movl   $0x40,(%esp)
 8049cb2:	e8 a0 ff ff ff       	call   8049c57 <out_byte>
 8049cb7:	8b 45 fc             	mov    -0x4(%ebp),%eax
 8049cba:	8d 90 ff 00 00 00    	lea    0xff(%eax),%edx
 8049cc0:	85 c0                	test   %eax,%eax
 8049cc2:	0f 48 c2             	cmovs  %edx,%eax
 8049cc5:	c1 f8 08             	sar    $0x8,%eax
 8049cc8:	0f be c0             	movsbl %al,%eax
 8049ccb:	89 44 24 04          	mov    %eax,0x4(%esp)
 8049ccf:	c7 04 24 40 00 00 00 	movl   $0x40,(%esp)
 8049cd6:	e8 7c ff ff ff       	call   8049c57 <out_byte>
 8049cdb:	c9                   	leave  
 8049cdc:	c3                   	ret    
 8049cdd:	66 90                	xchg   %ax,%ax
 8049cdf:	90                   	nop

08049ce0 <__udivdi3>:
 8049ce0:	55                   	push   %ebp
 8049ce1:	57                   	push   %edi
 8049ce2:	56                   	push   %esi
 8049ce3:	83 ec 0c             	sub    $0xc,%esp
 8049ce6:	8b 44 24 28          	mov    0x28(%esp),%eax
 8049cea:	8b 7c 24 1c          	mov    0x1c(%esp),%edi
 8049cee:	8b 6c 24 20          	mov    0x20(%esp),%ebp
 8049cf2:	8b 4c 24 24          	mov    0x24(%esp),%ecx
 8049cf6:	85 c0                	test   %eax,%eax
 8049cf8:	89 7c 24 04          	mov    %edi,0x4(%esp)
 8049cfc:	89 ea                	mov    %ebp,%edx
 8049cfe:	89 0c 24             	mov    %ecx,(%esp)
 8049d01:	75 2d                	jne    8049d30 <__udivdi3+0x50>
 8049d03:	39 e9                	cmp    %ebp,%ecx
 8049d05:	77 61                	ja     8049d68 <__udivdi3+0x88>
 8049d07:	85 c9                	test   %ecx,%ecx
 8049d09:	89 ce                	mov    %ecx,%esi
 8049d0b:	75 0b                	jne    8049d18 <__udivdi3+0x38>
 8049d0d:	b8 01 00 00 00       	mov    $0x1,%eax
 8049d12:	31 d2                	xor    %edx,%edx
 8049d14:	f7 f1                	div    %ecx
 8049d16:	89 c6                	mov    %eax,%esi
 8049d18:	31 d2                	xor    %edx,%edx
 8049d1a:	89 e8                	mov    %ebp,%eax
 8049d1c:	f7 f6                	div    %esi
 8049d1e:	89 c5                	mov    %eax,%ebp
 8049d20:	89 f8                	mov    %edi,%eax
 8049d22:	f7 f6                	div    %esi
 8049d24:	89 ea                	mov    %ebp,%edx
 8049d26:	83 c4 0c             	add    $0xc,%esp
 8049d29:	5e                   	pop    %esi
 8049d2a:	5f                   	pop    %edi
 8049d2b:	5d                   	pop    %ebp
 8049d2c:	c3                   	ret    
 8049d2d:	8d 76 00             	lea    0x0(%esi),%esi
 8049d30:	39 e8                	cmp    %ebp,%eax
 8049d32:	77 24                	ja     8049d58 <__udivdi3+0x78>
 8049d34:	0f bd e8             	bsr    %eax,%ebp
 8049d37:	83 f5 1f             	xor    $0x1f,%ebp
 8049d3a:	75 3c                	jne    8049d78 <__udivdi3+0x98>
 8049d3c:	8b 74 24 04          	mov    0x4(%esp),%esi
 8049d40:	39 34 24             	cmp    %esi,(%esp)
 8049d43:	0f 86 9f 00 00 00    	jbe    8049de8 <__udivdi3+0x108>
 8049d49:	39 d0                	cmp    %edx,%eax
 8049d4b:	0f 82 97 00 00 00    	jb     8049de8 <__udivdi3+0x108>
 8049d51:	8d b4 26 00 00 00 00 	lea    0x0(%esi,%eiz,1),%esi
 8049d58:	31 d2                	xor    %edx,%edx
 8049d5a:	31 c0                	xor    %eax,%eax
 8049d5c:	83 c4 0c             	add    $0xc,%esp
 8049d5f:	5e                   	pop    %esi
 8049d60:	5f                   	pop    %edi
 8049d61:	5d                   	pop    %ebp
 8049d62:	c3                   	ret    
 8049d63:	90                   	nop
 8049d64:	8d 74 26 00          	lea    0x0(%esi,%eiz,1),%esi
 8049d68:	89 f8                	mov    %edi,%eax
 8049d6a:	f7 f1                	div    %ecx
 8049d6c:	31 d2                	xor    %edx,%edx
 8049d6e:	83 c4 0c             	add    $0xc,%esp
 8049d71:	5e                   	pop    %esi
 8049d72:	5f                   	pop    %edi
 8049d73:	5d                   	pop    %ebp
 8049d74:	c3                   	ret    
 8049d75:	8d 76 00             	lea    0x0(%esi),%esi
 8049d78:	89 e9                	mov    %ebp,%ecx
 8049d7a:	8b 3c 24             	mov    (%esp),%edi
 8049d7d:	d3 e0                	shl    %cl,%eax
 8049d7f:	89 c6                	mov    %eax,%esi
 8049d81:	b8 20 00 00 00       	mov    $0x20,%eax
 8049d86:	29 e8                	sub    %ebp,%eax
 8049d88:	89 c1                	mov    %eax,%ecx
 8049d8a:	d3 ef                	shr    %cl,%edi
 8049d8c:	89 e9                	mov    %ebp,%ecx
 8049d8e:	89 7c 24 08          	mov    %edi,0x8(%esp)
 8049d92:	8b 3c 24             	mov    (%esp),%edi
 8049d95:	09 74 24 08          	or     %esi,0x8(%esp)
 8049d99:	89 d6                	mov    %edx,%esi
 8049d9b:	d3 e7                	shl    %cl,%edi
 8049d9d:	89 c1                	mov    %eax,%ecx
 8049d9f:	89 3c 24             	mov    %edi,(%esp)
 8049da2:	8b 7c 24 04          	mov    0x4(%esp),%edi
 8049da6:	d3 ee                	shr    %cl,%esi
 8049da8:	89 e9                	mov    %ebp,%ecx
 8049daa:	d3 e2                	shl    %cl,%edx
 8049dac:	89 c1                	mov    %eax,%ecx
 8049dae:	d3 ef                	shr    %cl,%edi
 8049db0:	09 d7                	or     %edx,%edi
 8049db2:	89 f2                	mov    %esi,%edx
 8049db4:	89 f8                	mov    %edi,%eax
 8049db6:	f7 74 24 08          	divl   0x8(%esp)
 8049dba:	89 d6                	mov    %edx,%esi
 8049dbc:	89 c7                	mov    %eax,%edi
 8049dbe:	f7 24 24             	mull   (%esp)
 8049dc1:	39 d6                	cmp    %edx,%esi
 8049dc3:	89 14 24             	mov    %edx,(%esp)
 8049dc6:	72 30                	jb     8049df8 <__udivdi3+0x118>
 8049dc8:	8b 54 24 04          	mov    0x4(%esp),%edx
 8049dcc:	89 e9                	mov    %ebp,%ecx
 8049dce:	d3 e2                	shl    %cl,%edx
 8049dd0:	39 c2                	cmp    %eax,%edx
 8049dd2:	73 05                	jae    8049dd9 <__udivdi3+0xf9>
 8049dd4:	3b 34 24             	cmp    (%esp),%esi
 8049dd7:	74 1f                	je     8049df8 <__udivdi3+0x118>
 8049dd9:	89 f8                	mov    %edi,%eax
 8049ddb:	31 d2                	xor    %edx,%edx
 8049ddd:	e9 7a ff ff ff       	jmp    8049d5c <__udivdi3+0x7c>
 8049de2:	8d b6 00 00 00 00    	lea    0x0(%esi),%esi
 8049de8:	31 d2                	xor    %edx,%edx
 8049dea:	b8 01 00 00 00       	mov    $0x1,%eax
 8049def:	e9 68 ff ff ff       	jmp    8049d5c <__udivdi3+0x7c>
 8049df4:	8d 74 26 00          	lea    0x0(%esi,%eiz,1),%esi
 8049df8:	8d 47 ff             	lea    -0x1(%edi),%eax
 8049dfb:	31 d2                	xor    %edx,%edx
 8049dfd:	83 c4 0c             	add    $0xc,%esp
 8049e00:	5e                   	pop    %esi
 8049e01:	5f                   	pop    %edi
 8049e02:	5d                   	pop    %ebp
 8049e03:	c3                   	ret    
 8049e04:	66 90                	xchg   %ax,%ax
 8049e06:	66 90                	xchg   %ax,%ax
 8049e08:	66 90                	xchg   %ax,%ax
 8049e0a:	66 90                	xchg   %ax,%ax
 8049e0c:	66 90                	xchg   %ax,%ax
 8049e0e:	66 90                	xchg   %ax,%ax

08049e10 <__umoddi3>:
 8049e10:	55                   	push   %ebp
 8049e11:	57                   	push   %edi
 8049e12:	56                   	push   %esi
 8049e13:	83 ec 14             	sub    $0x14,%esp
 8049e16:	8b 44 24 28          	mov    0x28(%esp),%eax
 8049e1a:	8b 4c 24 24          	mov    0x24(%esp),%ecx
 8049e1e:	8b 74 24 2c          	mov    0x2c(%esp),%esi
 8049e22:	89 c7                	mov    %eax,%edi
 8049e24:	89 44 24 04          	mov    %eax,0x4(%esp)
 8049e28:	8b 44 24 30          	mov    0x30(%esp),%eax
 8049e2c:	89 4c 24 10          	mov    %ecx,0x10(%esp)
 8049e30:	89 34 24             	mov    %esi,(%esp)
 8049e33:	89 4c 24 08          	mov    %ecx,0x8(%esp)
 8049e37:	85 c0                	test   %eax,%eax
 8049e39:	89 c2                	mov    %eax,%edx
 8049e3b:	89 7c 24 0c          	mov    %edi,0xc(%esp)
 8049e3f:	75 17                	jne    8049e58 <__umoddi3+0x48>
 8049e41:	39 fe                	cmp    %edi,%esi
 8049e43:	76 4b                	jbe    8049e90 <__umoddi3+0x80>
 8049e45:	89 c8                	mov    %ecx,%eax
 8049e47:	89 fa                	mov    %edi,%edx
 8049e49:	f7 f6                	div    %esi
 8049e4b:	89 d0                	mov    %edx,%eax
 8049e4d:	31 d2                	xor    %edx,%edx
 8049e4f:	83 c4 14             	add    $0x14,%esp
 8049e52:	5e                   	pop    %esi
 8049e53:	5f                   	pop    %edi
 8049e54:	5d                   	pop    %ebp
 8049e55:	c3                   	ret    
 8049e56:	66 90                	xchg   %ax,%ax
 8049e58:	39 f8                	cmp    %edi,%eax
 8049e5a:	77 54                	ja     8049eb0 <__umoddi3+0xa0>
 8049e5c:	0f bd e8             	bsr    %eax,%ebp
 8049e5f:	83 f5 1f             	xor    $0x1f,%ebp
 8049e62:	75 5c                	jne    8049ec0 <__umoddi3+0xb0>
 8049e64:	8b 7c 24 08          	mov    0x8(%esp),%edi
 8049e68:	39 3c 24             	cmp    %edi,(%esp)
 8049e6b:	0f 87 e7 00 00 00    	ja     8049f58 <__umoddi3+0x148>
 8049e71:	8b 7c 24 04          	mov    0x4(%esp),%edi
 8049e75:	29 f1                	sub    %esi,%ecx
 8049e77:	19 c7                	sbb    %eax,%edi
 8049e79:	89 4c 24 08          	mov    %ecx,0x8(%esp)
 8049e7d:	89 7c 24 0c          	mov    %edi,0xc(%esp)
 8049e81:	8b 44 24 08          	mov    0x8(%esp),%eax
 8049e85:	8b 54 24 0c          	mov    0xc(%esp),%edx
 8049e89:	83 c4 14             	add    $0x14,%esp
 8049e8c:	5e                   	pop    %esi
 8049e8d:	5f                   	pop    %edi
 8049e8e:	5d                   	pop    %ebp
 8049e8f:	c3                   	ret    
 8049e90:	85 f6                	test   %esi,%esi
 8049e92:	89 f5                	mov    %esi,%ebp
 8049e94:	75 0b                	jne    8049ea1 <__umoddi3+0x91>
 8049e96:	b8 01 00 00 00       	mov    $0x1,%eax
 8049e9b:	31 d2                	xor    %edx,%edx
 8049e9d:	f7 f6                	div    %esi
 8049e9f:	89 c5                	mov    %eax,%ebp
 8049ea1:	8b 44 24 04          	mov    0x4(%esp),%eax
 8049ea5:	31 d2                	xor    %edx,%edx
 8049ea7:	f7 f5                	div    %ebp
 8049ea9:	89 c8                	mov    %ecx,%eax
 8049eab:	f7 f5                	div    %ebp
 8049ead:	eb 9c                	jmp    8049e4b <__umoddi3+0x3b>
 8049eaf:	90                   	nop
 8049eb0:	89 c8                	mov    %ecx,%eax
 8049eb2:	89 fa                	mov    %edi,%edx
 8049eb4:	83 c4 14             	add    $0x14,%esp
 8049eb7:	5e                   	pop    %esi
 8049eb8:	5f                   	pop    %edi
 8049eb9:	5d                   	pop    %ebp
 8049eba:	c3                   	ret    
 8049ebb:	90                   	nop
 8049ebc:	8d 74 26 00          	lea    0x0(%esi,%eiz,1),%esi
 8049ec0:	8b 04 24             	mov    (%esp),%eax
 8049ec3:	be 20 00 00 00       	mov    $0x20,%esi
 8049ec8:	89 e9                	mov    %ebp,%ecx
 8049eca:	29 ee                	sub    %ebp,%esi
 8049ecc:	d3 e2                	shl    %cl,%edx
 8049ece:	89 f1                	mov    %esi,%ecx
 8049ed0:	d3 e8                	shr    %cl,%eax
 8049ed2:	89 e9                	mov    %ebp,%ecx
 8049ed4:	89 44 24 04          	mov    %eax,0x4(%esp)
 8049ed8:	8b 04 24             	mov    (%esp),%eax
 8049edb:	09 54 24 04          	or     %edx,0x4(%esp)
 8049edf:	89 fa                	mov    %edi,%edx
 8049ee1:	d3 e0                	shl    %cl,%eax
 8049ee3:	89 f1                	mov    %esi,%ecx
 8049ee5:	89 44 24 08          	mov    %eax,0x8(%esp)
 8049ee9:	8b 44 24 10          	mov    0x10(%esp),%eax
 8049eed:	d3 ea                	shr    %cl,%edx
 8049eef:	89 e9                	mov    %ebp,%ecx
 8049ef1:	d3 e7                	shl    %cl,%edi
 8049ef3:	89 f1                	mov    %esi,%ecx
 8049ef5:	d3 e8                	shr    %cl,%eax
 8049ef7:	89 e9                	mov    %ebp,%ecx
 8049ef9:	09 f8                	or     %edi,%eax
 8049efb:	8b 7c 24 10          	mov    0x10(%esp),%edi
 8049eff:	f7 74 24 04          	divl   0x4(%esp)
 8049f03:	d3 e7                	shl    %cl,%edi
 8049f05:	89 7c 24 0c          	mov    %edi,0xc(%esp)
 8049f09:	89 d7                	mov    %edx,%edi
 8049f0b:	f7 64 24 08          	mull   0x8(%esp)
 8049f0f:	39 d7                	cmp    %edx,%edi
 8049f11:	89 c1                	mov    %eax,%ecx
 8049f13:	89 14 24             	mov    %edx,(%esp)
 8049f16:	72 2c                	jb     8049f44 <__umoddi3+0x134>
 8049f18:	39 44 24 0c          	cmp    %eax,0xc(%esp)
 8049f1c:	72 22                	jb     8049f40 <__umoddi3+0x130>
 8049f1e:	8b 44 24 0c          	mov    0xc(%esp),%eax
 8049f22:	29 c8                	sub    %ecx,%eax
 8049f24:	19 d7                	sbb    %edx,%edi
 8049f26:	89 e9                	mov    %ebp,%ecx
 8049f28:	89 fa                	mov    %edi,%edx
 8049f2a:	d3 e8                	shr    %cl,%eax
 8049f2c:	89 f1                	mov    %esi,%ecx
 8049f2e:	d3 e2                	shl    %cl,%edx
 8049f30:	89 e9                	mov    %ebp,%ecx
 8049f32:	d3 ef                	shr    %cl,%edi
 8049f34:	09 d0                	or     %edx,%eax
 8049f36:	89 fa                	mov    %edi,%edx
 8049f38:	83 c4 14             	add    $0x14,%esp
 8049f3b:	5e                   	pop    %esi
 8049f3c:	5f                   	pop    %edi
 8049f3d:	5d                   	pop    %ebp
 8049f3e:	c3                   	ret    
 8049f3f:	90                   	nop
 8049f40:	39 d7                	cmp    %edx,%edi
 8049f42:	75 da                	jne    8049f1e <__umoddi3+0x10e>
 8049f44:	8b 14 24             	mov    (%esp),%edx
 8049f47:	89 c1                	mov    %eax,%ecx
 8049f49:	2b 4c 24 08          	sub    0x8(%esp),%ecx
 8049f4d:	1b 54 24 04          	sbb    0x4(%esp),%edx
 8049f51:	eb cb                	jmp    8049f1e <__umoddi3+0x10e>
 8049f53:	90                   	nop
 8049f54:	8d 74 26 00          	lea    0x0(%esi,%eiz,1),%esi
 8049f58:	3b 44 24 0c          	cmp    0xc(%esp),%eax
 8049f5c:	0f 82 0f ff ff ff    	jb     8049e71 <__umoddi3+0x61>
 8049f62:	e9 1a ff ff ff       	jmp    8049e81 <__umoddi3+0x71>
